	.text
	.file	"lbm_rearrage_2.cpp"
	.file	0 "/home/alex/Documents/bp_register_pressure/register_pressure/codes" "lbm_rearrage_2.cpp" md5 0x6095f8677b18d89c13429de25c8319f0
	.file	1 "/usr/lib/gcc/x86_64-linux-gnu/9/../../../../include/c++/9/ext" "concurrence.h"
	.file	2 "/usr/include" "stdlib.h"
	.file	3 "/usr/lib/gcc/x86_64-linux-gnu/9/../../../../include/c++/9/bits" "std_abs.h"
	.file	4 "/usr/include/x86_64-linux-gnu/bits" "mathcalls.h"
	.file	5 "/usr/lib/gcc/x86_64-linux-gnu/9/../../../../include/c++/9" "cmath"
	.file	6 "/usr/include" "math.h"
	.file	7 "/usr/lib/gcc/x86_64-linux-gnu/9/../../../../include/c++/9" "cstdlib"
	.file	8 "/usr/include/x86_64-linux-gnu/bits" "stdlib-float.h"
	.file	9 "/usr/include/x86_64-linux-gnu/bits" "stdlib-bsearch.h"
	.file	10 "/opt/rocm-5.4.0/llvm/lib/clang/15.0.0/include" "stddef.h"
	.file	11 "/usr/lib/gcc/x86_64-linux-gnu/9/../../../../include/c++/9" "stdlib.h"
	.file	12 "/usr/lib/gcc/x86_64-linux-gnu/9/../../../../include/c++/9/debug" "debug.h"
	.file	13 "/usr/lib/gcc/x86_64-linux-gnu/9/../../../../include/c++/9/bits" "exception_ptr.h"
	.file	14 "/opt/rocm-5.4.0/llvm/lib/clang/15.0.0/include" "__clang_cuda_math_forward_declares.h"
	.file	15 "/opt/rocm-5.4.0/llvm/lib/clang/15.0.0/include" "__clang_hip_math.h"
	.file	16 "/opt/rocm-5.4.0/llvm/lib/clang/15.0.0/include" "__clang_hip_cmath.h"
	.file	17 "/usr/include/x86_64-linux-gnu/bits/types" "__mbstate_t.h"
	.file	18 "/usr/include/x86_64-linux-gnu/bits/types" "mbstate_t.h"
	.file	19 "/usr/lib/gcc/x86_64-linux-gnu/9/../../../../include/c++/9" "cwchar"
	.file	20 "/usr/include/x86_64-linux-gnu/bits/types" "wint_t.h"
	.file	21 "/usr/include" "wchar.h"
	.file	22 "/usr/include/x86_64-linux-gnu/bits/types" "struct_FILE.h"
	.file	23 "/usr/include/x86_64-linux-gnu/bits" "types.h"
	.file	24 "/usr/include/x86_64-linux-gnu/bits/types" "__FILE.h"
	.file	25 "/usr/include/x86_64-linux-gnu/bits" "stdint-intn.h"
	.file	26 "/usr/lib/gcc/x86_64-linux-gnu/9/../../../../include/c++/9" "cstdint"
	.file	27 "/usr/include" "stdint.h"
	.file	28 "/usr/include/x86_64-linux-gnu/bits" "stdint-uintn.h"
	.file	29 "/usr/lib/gcc/x86_64-linux-gnu/9/../../../../include/x86_64-linux-gnu/c++/9/bits" "c++config.h"
	.file	30 "/usr/lib/gcc/x86_64-linux-gnu/9/../../../../include/c++/9/ext" "new_allocator.h"
	.file	31 "/usr/lib/gcc/x86_64-linux-gnu/9/../../../../include/c++/9" "clocale"
	.file	32 "/usr/include" "locale.h"
	.file	33 "/usr/include" "ctype.h"
	.file	34 "/usr/lib/gcc/x86_64-linux-gnu/9/../../../../include/c++/9" "cctype"
	.file	35 "/usr/include/x86_64-linux-gnu/bits/types" "FILE.h"
	.file	36 "/usr/lib/gcc/x86_64-linux-gnu/9/../../../../include/c++/9" "cstdio"
	.file	37 "/usr/include/x86_64-linux-gnu/bits/types" "__fpos_t.h"
	.file	38 "/usr/include" "stdio.h"
	.file	39 "/usr/include/x86_64-linux-gnu/bits" "stdio.h"
	.file	40 "/usr/include" "wctype.h"
	.file	41 "/usr/lib/gcc/x86_64-linux-gnu/9/../../../../include/c++/9" "cwctype"
	.file	42 "/usr/include/x86_64-linux-gnu/bits" "wctype-wchar.h"
	.file	43 "/usr/include/x86_64-linux-gnu/bits/types" "clock_t.h"
	.file	44 "/usr/lib/gcc/x86_64-linux-gnu/9/../../../../include/c++/9" "ctime"
	.file	45 "/usr/include/x86_64-linux-gnu/bits/types" "time_t.h"
	.file	46 "/usr/include" "time.h"
	.file	47 "/usr/lib/gcc/x86_64-linux-gnu/9/../../../../include/c++/9/bits" "shared_ptr_base.h"
	.globl	_Z21__device_stub__kernelPdS_S_S_S_S_S_S_S_S_S_S_S_S_S_S_S_S_S_S_S_S_S_S_S_S_S_S_S_S_S_iiiiiiiddddddddddddddd # -- Begin function _Z21__device_stub__kernelPdS_S_S_S_S_S_S_S_S_S_S_S_S_S_S_S_S_S_S_S_S_S_S_S_S_S_S_S_S_S_iiiiiiiddddddddddddddd
	.p2align	4, 0x90
	.type	_Z21__device_stub__kernelPdS_S_S_S_S_S_S_S_S_S_S_S_S_S_S_S_S_S_S_S_S_S_S_S_S_S_S_S_S_S_iiiiiiiddddddddddddddd,@function
_Z21__device_stub__kernelPdS_S_S_S_S_S_S_S_S_S_S_S_S_S_S_S_S_S_S_S_S_S_S_S_S_S_S_S_S_S_iiiiiiiddddddddddddddd: # @_Z21__device_stub__kernelPdS_S_S_S_S_S_S_S_S_S_S_S_S_S_S_S_S_S_S_S_S_S_S_S_S_S_S_S_S_S_iiiiiiiddddddddddddddd
.Lfunc_begin0:
	.cfi_startproc
# %bb.0:
	subq	$584, %rsp                      # imm = 0x248
	.cfi_def_cfa_offset 592
	movq	%rdi, 152(%rsp)
	movq	%rsi, 144(%rsp)
	movq	%rdx, 136(%rsp)
	movq	%rcx, 128(%rsp)
	movq	%r8, 120(%rsp)
	movq	%r9, 112(%rsp)
	movsd	%xmm0, 104(%rsp)
	movsd	%xmm1, 96(%rsp)
	movsd	%xmm2, 88(%rsp)
	movsd	%xmm3, 80(%rsp)
	movsd	%xmm4, 72(%rsp)
	movsd	%xmm5, 64(%rsp)
	movsd	%xmm6, 56(%rsp)
	movsd	%xmm7, 48(%rsp)
	leaq	152(%rsp), %rax
	movq	%rax, 160(%rsp)
	leaq	144(%rsp), %rax
	movq	%rax, 168(%rsp)
	leaq	136(%rsp), %rax
	movq	%rax, 176(%rsp)
	leaq	128(%rsp), %rax
	movq	%rax, 184(%rsp)
	leaq	120(%rsp), %rax
	movq	%rax, 192(%rsp)
	leaq	112(%rsp), %rax
	movq	%rax, 200(%rsp)
	leaq	592(%rsp), %rax
	movq	%rax, 208(%rsp)
	leaq	600(%rsp), %rax
	movq	%rax, 216(%rsp)
	leaq	608(%rsp), %rax
	movq	%rax, 224(%rsp)
	leaq	616(%rsp), %rax
	movq	%rax, 232(%rsp)
	leaq	624(%rsp), %rax
	movq	%rax, 240(%rsp)
	leaq	632(%rsp), %rax
	movq	%rax, 248(%rsp)
	leaq	640(%rsp), %rax
	movq	%rax, 256(%rsp)
	leaq	648(%rsp), %rax
	movq	%rax, 264(%rsp)
	leaq	656(%rsp), %rax
	movq	%rax, 272(%rsp)
	leaq	664(%rsp), %rax
	movq	%rax, 280(%rsp)
	leaq	672(%rsp), %rax
	movq	%rax, 288(%rsp)
	leaq	680(%rsp), %rax
	movq	%rax, 296(%rsp)
	leaq	688(%rsp), %rax
	movq	%rax, 304(%rsp)
	leaq	696(%rsp), %rax
	movq	%rax, 312(%rsp)
	leaq	704(%rsp), %rax
	movq	%rax, 320(%rsp)
	leaq	712(%rsp), %rax
	movq	%rax, 328(%rsp)
	leaq	720(%rsp), %rax
	movq	%rax, 336(%rsp)
	leaq	728(%rsp), %rax
	movq	%rax, 344(%rsp)
	leaq	736(%rsp), %rax
	movq	%rax, 352(%rsp)
	leaq	744(%rsp), %rax
	movq	%rax, 360(%rsp)
	leaq	752(%rsp), %rax
	movq	%rax, 368(%rsp)
	leaq	760(%rsp), %rax
	movq	%rax, 376(%rsp)
	leaq	768(%rsp), %rax
	movq	%rax, 384(%rsp)
	leaq	776(%rsp), %rax
	movq	%rax, 392(%rsp)
	leaq	784(%rsp), %rax
	movq	%rax, 400(%rsp)
	leaq	792(%rsp), %rax
	movq	%rax, 408(%rsp)
	leaq	800(%rsp), %rax
	movq	%rax, 416(%rsp)
	leaq	808(%rsp), %rax
	movq	%rax, 424(%rsp)
	leaq	816(%rsp), %rax
	movq	%rax, 432(%rsp)
	leaq	824(%rsp), %rax
	movq	%rax, 440(%rsp)
	leaq	832(%rsp), %rax
	movq	%rax, 448(%rsp)
	leaq	840(%rsp), %rax
	movq	%rax, 456(%rsp)
	leaq	104(%rsp), %rax
	movq	%rax, 464(%rsp)
	leaq	96(%rsp), %rax
	movq	%rax, 472(%rsp)
	leaq	88(%rsp), %rax
	movq	%rax, 480(%rsp)
	leaq	80(%rsp), %rax
	movq	%rax, 488(%rsp)
	leaq	72(%rsp), %rax
	movq	%rax, 496(%rsp)
	leaq	64(%rsp), %rax
	movq	%rax, 504(%rsp)
	leaq	56(%rsp), %rax
	movq	%rax, 512(%rsp)
	leaq	48(%rsp), %rax
	movq	%rax, 520(%rsp)
	leaq	848(%rsp), %rax
	movq	%rax, 528(%rsp)
	leaq	856(%rsp), %rax
	movq	%rax, 536(%rsp)
	leaq	864(%rsp), %rax
	movq	%rax, 544(%rsp)
	leaq	872(%rsp), %rax
	movq	%rax, 552(%rsp)
	leaq	880(%rsp), %rax
	movq	%rax, 560(%rsp)
	leaq	888(%rsp), %rax
	movq	%rax, 568(%rsp)
	leaq	896(%rsp), %rax
	movq	%rax, 576(%rsp)
	leaq	32(%rsp), %rdi
	leaq	16(%rsp), %rsi
	leaq	8(%rsp), %rdx
	movq	%rsp, %rcx
	callq	__hipPopCallConfiguration
	movq	32(%rsp), %rsi
	movl	40(%rsp), %edx
	movq	16(%rsp), %rcx
	movl	24(%rsp), %r8d
	leaq	160(%rsp), %r9
	movl	$_Z6kernelPdS_S_S_S_S_S_S_S_S_S_S_S_S_S_S_S_S_S_S_S_S_S_S_S_S_S_S_S_S_S_iiiiiiiddddddddddddddd, %edi
	pushq	(%rsp)
	.cfi_adjust_cfa_offset 8
	pushq	16(%rsp)
	.cfi_adjust_cfa_offset 8
	callq	hipLaunchKernel
	addq	$600, %rsp                      # imm = 0x258
	.cfi_adjust_cfa_offset -600
	retq
.Lfunc_end0:
	.size	_Z21__device_stub__kernelPdS_S_S_S_S_S_S_S_S_S_S_S_S_S_S_S_S_S_S_S_S_S_S_S_S_S_S_S_S_S_iiiiiiiddddddddddddddd, .Lfunc_end0-_Z21__device_stub__kernelPdS_S_S_S_S_S_S_S_S_S_S_S_S_S_S_S_S_S_S_S_S_S_S_S_S_S_S_S_S_S_iiiiiiiddddddddddddddd
	.cfi_endproc
                                        # -- End function
	.p2align	4, 0x90                         # -- Begin function __hip_module_ctor
	.type	__hip_module_ctor,@function
__hip_module_ctor:                      # @__hip_module_ctor
.Lfunc_begin1:
	.cfi_startproc
# %bb.0:
	subq	$40, %rsp
	.cfi_def_cfa_offset 48
	movq	__hip_gpubin_handle(%rip), %rdi
	testq	%rdi, %rdi
	jne	.LBB1_2
# %bb.1:
	movl	$__hip_fatbin_wrapper, %edi
	callq	__hipRegisterFatBinary
	movq	%rax, %rdi
	movq	%rax, __hip_gpubin_handle(%rip)
.LBB1_2:
	xorps	%xmm0, %xmm0
	movups	%xmm0, 16(%rsp)
	movups	%xmm0, (%rsp)
	movl	$_Z6kernelPdS_S_S_S_S_S_S_S_S_S_S_S_S_S_S_S_S_S_S_S_S_S_S_S_S_S_S_S_S_S_iiiiiiiddddddddddddddd, %esi
	movl	$.L__unnamed_1, %edx
	movl	$.L__unnamed_1, %ecx
	movl	$-1, %r8d
	xorl	%r9d, %r9d
	callq	__hipRegisterFunction
	movl	$__hip_module_dtor, %edi
	addq	$40, %rsp
	.cfi_def_cfa_offset 8
	jmp	atexit                          # TAILCALL
.Lfunc_end1:
	.size	__hip_module_ctor, .Lfunc_end1-__hip_module_ctor
	.cfi_endproc
                                        # -- End function
	.p2align	4, 0x90                         # -- Begin function __hip_module_dtor
	.type	__hip_module_dtor,@function
__hip_module_dtor:                      # @__hip_module_dtor
.Lfunc_begin2:
	.cfi_startproc
# %bb.0:
	pushq	%rax
	.cfi_def_cfa_offset 16
	movq	__hip_gpubin_handle(%rip), %rdi
	testq	%rdi, %rdi
	je	.LBB2_2
# %bb.1:
	callq	__hipUnregisterFatBinary
	movq	$0, __hip_gpubin_handle(%rip)
.LBB2_2:
	popq	%rax
	.cfi_def_cfa_offset 8
	retq
.Lfunc_end2:
	.size	__hip_module_dtor, .Lfunc_end2-__hip_module_dtor
	.cfi_endproc
                                        # -- End function
	.type	_Z6kernelPdS_S_S_S_S_S_S_S_S_S_S_S_S_S_S_S_S_S_S_S_S_S_S_S_S_S_S_S_S_S_iiiiiiiddddddddddddddd,@object # @_Z6kernelPdS_S_S_S_S_S_S_S_S_S_S_S_S_S_S_S_S_S_S_S_S_S_S_S_S_S_S_S_S_S_iiiiiiiddddddddddddddd
	.section	.rodata,"a",@progbits
	.globl	_Z6kernelPdS_S_S_S_S_S_S_S_S_S_S_S_S_S_S_S_S_S_S_S_S_S_S_S_S_S_S_S_S_S_iiiiiiiddddddddddddddd
	.p2align	3
_Z6kernelPdS_S_S_S_S_S_S_S_S_S_S_S_S_S_S_S_S_S_S_S_S_S_S_S_S_S_S_S_S_S_iiiiiiiddddddddddddddd:
	.quad	_Z21__device_stub__kernelPdS_S_S_S_S_S_S_S_S_S_S_S_S_S_S_S_S_S_S_S_S_S_S_S_S_S_S_S_S_S_iiiiiiiddddddddddddddd
	.size	_Z6kernelPdS_S_S_S_S_S_S_S_S_S_S_S_S_S_S_S_S_S_S_S_S_S_S_S_S_S_S_S_S_S_iiiiiiiddddddddddddddd, 8

	.type	.L__unnamed_1,@object           # @0
	.section	.rodata.str1.1,"aMS",@progbits,1
.L__unnamed_1:
	.asciz	"_Z6kernelPdS_S_S_S_S_S_S_S_S_S_S_S_S_S_S_S_S_S_S_S_S_S_S_S_S_S_S_S_S_S_iiiiiiiddddddddddddddd"
	.size	.L__unnamed_1, 94

	.type	.L__unnamed_2,@object           # @1
	.section	.hip_fatbin,"a",@progbits
	.p2align	12
.L__unnamed_2:
	.asciz	"__CLANG_OFFLOAD_BUNDLE__\002\000\000\000\000\000\000\000\000\020\000\000\000\000\000\000\000\000\000\000\000\000\000\000\031\000\000\000\000\000\000\000host-x86_64-unknown-linux\000\020\000\000\000\000\000\000\210\301\000\000\000\000\000\000\037\000\000\000\000\000\000\000hipv4-amdgcn-amd-amdhsa--gfx90a\000\000\000\000\000\000\000\000\000\000\000\000\000\000\000\000\000\000\000\000\000\000\000\000\000\000\000\000\000\000\000\000\000\000\000\000\000\000\000\000\000\000\000\000\000\000\000\000\000\000\000\000\000\000\000\000\000\000\000\000\000\000\000\000\000\000\000\000\000\000\000\000\000\000\000\000\000\000\000\000\000\000\000\000\000\000\000\000\000\000\000\000\000\000\000\000\000\000\000\000\000\000\000\000\000\000\000\000\000\000\000\000\000\000\000\000\000\000\000\000\000\000\000\000\000\000\000\000\000\000\000\000\000\000\000\000\000\000\000\000\000\000\000\000\000\000\000\000\000\000\000\000\000\000\000\000\000\000\000\000\000\000\000\000\000\000\000\000\000\000\000\000\000\000\000\000\000\000\000\000\000\000\000\000\000\000\000\000\000\000\000\000\000\000\000\000\000\000\000\000\000\000\000\000\000\000\000\000\000\000\000\000\000\000\000\000\000\000\000\000\000\000\000\000\000\000\000\000\000\000\000\000\000\000\000\000\000\000\000\000\000\000\000\000\000\000\000\000\000\000\000\000\000\000\000\000\000\000\000\000\000\000\000\000\000\000\000\000\000\000\000\000\000\000\000\000\000\000\000\000\000\000\000\000\000\000\000\000\000\000\000\000\000\000\000\000\000\000\000\000\000\000\000\000\000\000\000\000\000\000\000\000\000\000\000\000\000\000\000\000\000\000\000\000\000\000\000\000\000\000\000\000\000\000\000\000\000\000\000\000\000\000\000\000\000\000\000\000\000\000\000\000\000\000\000\000\000\000\000\000\000\000\000\000\000\000\000\000\000\000\000\000\000\000\000\000\000\000\000\000\000\000\000\000\000\000\000\000\000\000\000\000\000\000\000\000\000\000\000\000\000\000\000\000\000\000\000\000\000\000\000\000\000\000\000\000\000\000\000\000\000\000\000\000\000\000\000\000\000\000\000\000\000\000\000\000\000\000\000\000\000\000\000\000\000\000\000\000\000\000\000\000\000\000\000\000\000\000\000\000\000\000\000\000\000\000\000\000\000\000\000\000\000\000\000\000\000\000\000\000\000\000\000\000\000\000\000\000\000\000\000\000\000\000\000\000\000\000\000\000\000\000\000\000\000\000\000\000\000\000\000\000\000\000\000\000\000\000\000\000\000\000\000\000\000\000\000\000\000\000\000\000\000\000\000\000\000\000\000\000\000\000\000\000\000\000\000\000\000\000\000\000\000\000\000\000\000\000\000\000\000\000\000\000\000\000\000\000\000\000\000\000\000\000\000\000\000\000\000\000\000\000\000\000\000\000\000\000\000\000\000\000\000\000\000\000\000\000\000\000\000\000\000\000\000\000\000\000\000\000\000\000\000\000\000\000\000\000\000\000\000\000\000\000\000\000\000\000\000\000\000\000\000\000\000\000\000\000\000\000\000\000\000\000\000\000\000\000\000\000\000\000\000\000\000\000\000\000\000\000\000\000\000\000\000\000\000\000\000\000\000\000\000\000\000\000\000\000\000\000\000\000\000\000\000\000\000\000\000\000\000\000\000\000\000\000\000\000\000\000\000\000\000\000\000\000\000\000\000\000\000\000\000\000\000\000\000\000\000\000\000\000\000\000\000\000\000\000\000\000\000\000\000\000\000\000\000\000\000\000\000\000\000\000\000\000\000\000\000\000\000\000\000\000\000\000\000\000\000\000\000\000\000\000\000\000\000\000\000\000\000\000\000\000\000\000\000\000\000\000\000\000\000\000\000\000\000\000\000\000\000\000\000\000\000\000\000\000\000\000\000\000\000\000\000\000\000\000\000\000\000\000\000\000\000\000\000\000\000\000\000\000\000\000\000\000\000\000\000\000\000\000\000\000\000\000\000\000\000\000\000\000\000\000\000\000\000\000\000\000\000\000\000\000\000\000\000\000\000\000\000\000\000\000\000\000\000\000\000\000\000\000\000\000\000\000\000\000\000\000\000\000\000\000\000\000\000\000\000\000\000\000\000\000\000\000\000\000\000\000\000\000\000\000\000\000\000\000\000\000\000\000\000\000\000\000\000\000\000\000\000\000\000\000\000\000\000\000\000\000\000\000\000\000\000\000\000\000\000\000\000\000\000\000\000\000\000\000\000\000\000\000\000\000\000\000\000\000\000\000\000\000\000\000\000\000\000\000\000\000\000\000\000\000\000\000\000\000\000\000\000\000\000\000\000\000\000\000\000\000\000\000\000\000\000\000\000\000\000\000\000\000\000\000\000\000\000\000\000\000\000\000\000\000\000\000\000\000\000\000\000\000\000\000\000\000\000\000\000\000\000\000\000\000\000\000\000\000\000\000\000\000\000\000\000\000\000\000\000\000\000\000\000\000\000\000\000\000\000\000\000\000\000\000\000\000\000\000\000\000\000\000\000\000\000\000\000\000\000\000\000\000\000\000\000\000\000\000\000\000\000\000\000\000\000\000\000\000\000\000\000\000\000\000\000\000\000\000\000\000\000\000\000\000\000\000\000\000\000\000\000\000\000\000\000\000\000\000\000\000\000\000\000\000\000\000\000\000\000\000\000\000\000\000\000\000\000\000\000\000\000\000\000\000\000\000\000\000\000\000\000\000\000\000\000\000\000\000\000\000\000\000\000\000\000\000\000\000\000\000\000\000\000\000\000\000\000\000\000\000\000\000\000\000\000\000\000\000\000\000\000\000\000\000\000\000\000\000\000\000\000\000\000\000\000\000\000\000\000\000\000\000\000\000\000\000\000\000\000\000\000\000\000\000\000\000\000\000\000\000\000\000\000\000\000\000\000\000\000\000\000\000\000\000\000\000\000\000\000\000\000\000\000\000\000\000\000\000\000\000\000\000\000\000\000\000\000\000\000\000\000\000\000\000\000\000\000\000\000\000\000\000\000\000\000\000\000\000\000\000\000\000\000\000\000\000\000\000\000\000\000\000\000\000\000\000\000\000\000\000\000\000\000\000\000\000\000\000\000\000\000\000\000\000\000\000\000\000\000\000\000\000\000\000\000\000\000\000\000\000\000\000\000\000\000\000\000\000\000\000\000\000\000\000\000\000\000\000\000\000\000\000\000\000\000\000\000\000\000\000\000\000\000\000\000\000\000\000\000\000\000\000\000\000\000\000\000\000\000\000\000\000\000\000\000\000\000\000\000\000\000\000\000\000\000\000\000\000\000\000\000\000\000\000\000\000\000\000\000\000\000\000\000\000\000\000\000\000\000\000\000\000\000\000\000\000\000\000\000\000\000\000\000\000\000\000\000\000\000\000\000\000\000\000\000\000\000\000\000\000\000\000\000\000\000\000\000\000\000\000\000\000\000\000\000\000\000\000\000\000\000\000\000\000\000\000\000\000\000\000\000\000\000\000\000\000\000\000\000\000\000\000\000\000\000\000\000\000\000\000\000\000\000\000\000\000\000\000\000\000\000\000\000\000\000\000\000\000\000\000\000\000\000\000\000\000\000\000\000\000\000\000\000\000\000\000\000\000\000\000\000\000\000\000\000\000\000\000\000\000\000\000\000\000\000\000\000\000\000\000\000\000\000\000\000\000\000\000\000\000\000\000\000\000\000\000\000\000\000\000\000\000\000\000\000\000\000\000\000\000\000\000\000\000\000\000\000\000\000\000\000\000\000\000\000\000\000\000\000\000\000\000\000\000\000\000\000\000\000\000\000\000\000\000\000\000\000\000\000\000\000\000\000\000\000\000\000\000\000\000\000\000\000\000\000\000\000\000\000\000\000\000\000\000\000\000\000\000\000\000\000\000\000\000\000\000\000\000\000\000\000\000\000\000\000\000\000\000\000\000\000\000\000\000\000\000\000\000\000\000\000\000\000\000\000\000\000\000\000\000\000\000\000\000\000\000\000\000\000\000\000\000\000\000\000\000\000\000\000\000\000\000\000\000\000\000\000\000\000\000\000\000\000\000\000\000\000\000\000\000\000\000\000\000\000\000\000\000\000\000\000\000\000\000\000\000\000\000\000\000\000\000\000\000\000\000\000\000\000\000\000\000\000\000\000\000\000\000\000\000\000\000\000\000\000\000\000\000\000\000\000\000\000\000\000\000\000\000\000\000\000\000\000\000\000\000\000\000\000\000\000\000\000\000\000\000\000\000\000\000\000\000\000\000\000\000\000\000\000\000\000\000\000\000\000\000\000\000\000\000\000\000\000\000\000\000\000\000\000\000\000\000\000\000\000\000\000\000\000\000\000\000\000\000\000\000\000\000\000\000\000\000\000\000\000\000\000\000\000\000\000\000\000\000\000\000\000\000\000\000\000\000\000\000\000\000\000\000\000\000\000\000\000\000\000\000\000\000\000\000\000\000\000\000\000\000\000\000\000\000\000\000\000\000\000\000\000\000\000\000\000\000\000\000\000\000\000\000\000\000\000\000\000\000\000\000\000\000\000\000\000\000\000\000\000\000\000\000\000\000\000\000\000\000\000\000\000\000\000\000\000\000\000\000\000\000\000\000\000\000\000\000\000\000\000\000\000\000\000\000\000\000\000\000\000\000\000\000\000\000\000\000\000\000\000\000\000\000\000\000\000\000\000\000\000\000\000\000\000\000\000\000\000\000\000\000\000\000\000\000\000\000\000\000\000\000\000\000\000\000\000\000\000\000\000\000\000\000\000\000\000\000\000\000\000\000\000\000\000\000\000\000\000\000\000\000\000\000\000\000\000\000\000\000\000\000\000\000\000\000\000\000\000\000\000\000\000\000\000\000\000\000\000\000\000\000\000\000\000\000\000\000\000\000\000\000\000\000\000\000\000\000\000\000\000\000\000\000\000\000\000\000\000\000\000\000\000\000\000\000\000\000\000\000\000\000\000\000\000\000\000\000\000\000\000\000\000\000\000\000\000\000\000\000\000\000\000\000\000\000\000\000\000\000\000\000\000\000\000\000\000\000\000\000\000\000\000\000\000\000\000\000\000\000\000\000\000\000\000\000\000\000\000\000\000\000\000\000\000\000\000\000\000\000\000\000\000\000\000\000\000\000\000\000\000\000\000\000\000\000\000\000\000\000\000\000\000\000\000\000\000\000\000\000\000\000\000\000\000\000\000\000\000\000\000\000\000\000\000\000\000\000\000\000\000\000\000\000\000\000\000\000\000\000\000\000\000\000\000\000\000\000\000\000\000\000\000\000\000\000\000\000\000\000\000\000\000\000\000\000\000\000\000\000\000\000\000\000\000\000\000\000\000\000\000\000\000\000\000\000\000\000\000\000\000\000\000\000\000\000\000\000\000\000\000\000\000\000\000\000\000\000\000\000\000\000\000\000\000\000\000\000\000\000\000\000\000\000\000\000\000\000\000\000\000\000\000\000\000\000\000\000\000\000\000\000\000\000\000\000\000\000\000\000\000\000\000\000\000\000\000\000\000\000\000\000\000\000\000\000\000\000\000\000\000\000\000\000\000\000\000\000\000\000\000\000\000\000\000\000\000\000\000\000\000\000\000\000\000\000\000\000\000\000\000\000\000\000\000\000\000\000\000\000\000\000\000\000\000\000\000\000\000\000\000\000\000\000\000\000\000\000\000\000\000\000\000\000\000\000\000\000\000\000\000\000\000\000\000\000\000\000\000\000\000\000\000\000\000\000\000\000\000\000\000\000\000\000\000\000\000\000\000\000\000\000\000\000\000\000\000\000\000\000\000\000\000\000\000\000\000\000\000\000\000\000\000\000\000\000\000\000\000\000\000\000\000\000\000\000\000\000\000\000\000\000\000\000\000\000\000\000\000\000\000\000\000\000\000\000\000\000\000\000\000\000\000\000\000\000\000\000\000\000\000\000\000\000\000\000\000\000\000\000\000\000\000\000\000\000\000\000\000\000\000\000\000\000\000\000\000\000\000\000\000\000\000\000\000\000\000\000\000\000\000\000\000\000\000\000\000\000\000\000\000\000\000\000\000\000\000\000\000\000\000\000\000\000\000\000\000\000\000\000\000\000\000\000\000\000\000\000\000\000\000\000\000\000\000\000\000\000\000\000\000\000\000\000\000\000\000\000\000\000\000\000\000\000\000\000\000\000\000\000\000\000\000\000\000\000\000\000\000\000\000\000\000\000\000\000\000\000\000\000\000\000\000\000\000\000\000\000\000\000\000\000\000\000\000\000\000\000\000\000\000\000\000\000\000\000\000\000\000\000\000\000\000\000\000\000\000\000\000\000\000\000\000\000\000\000\000\000\000\000\000\000\000\000\000\000\000\000\000\000\000\000\000\000\000\000\000\000\000\000\000\000\000\000\000\000\000\000\000\000\000\000\000\000\000\000\000\000\000\000\000\000\000\000\000\000\000\000\000\000\000\000\000\000\000\000\000\000\000\000\000\000\000\000\000\000\000\000\000\000\000\000\000\000\000\000\000\000\000\000\000\000\000\000\000\000\000\000\000\000\000\000\000\000\000\000\000\000\000\000\000\000\000\000\000\000\000\000\000\000\000\000\000\000\000\000\000\000\000\000\000\000\000\000\000\000\000\000\000\000\000\000\000\000\000\000\000\000\000\000\000\000\000\000\000\000\000\000\000\000\000\000\000\000\000\000\000\000\000\000\000\000\000\000\000\000\000\000\000\000\000\000\000\000\000\000\000\000\000\000\000\000\000\000\000\000\000\000\000\000\000\000\000\000\000\000\000\000\000\000\000\000\000\000\000\000\000\000\000\000\000\000\000\000\000\000\000\000\000\000\000\000\000\000\000\000\000\000\000\000\000\000\000\000\000\000\000\000\000\000\000\000\000\000\000\000\000\000\000\000\000\000\000\000\000\000\000\000\000\000\000\000\000\000\000\000\000\000\000\000\000\000\000\000\000\000\000\000\000\000\000\000\000\000\000\000\000\000\000\000\000\000\000\000\000\000\000\000\000\000\000\000\000\000\000\000\000\000\000\000\000\000\000\000\000\000\000\000\000\000\000\000\000\000\000\000\000\000\000\000\000\000\000\000\000\000\000\000\000\000\000\000\000\000\000\000\000\000\000\000\000\000\000\000\000\000\000\000\000\000\000\000\000\000\000\000\000\000\000\000\000\000\000\000\000\000\000\000\000\000\000\000\000\000\000\000\000\000\000\000\000\000\000\000\000\000\000\000\000\000\000\000\000\000\000\000\000\000\000\000\000\000\000\000\000\000\000\000\000\000\000\000\000\000\000\000\000\000\000\000\000\000\000\000\000\000\000\000\000\000\000\000\000\000\000\000\000\000\000\000\000\000\000\000\000\000\000\000\000\000\000\000\000\000\000\000\000\000\000\000\000\000\000\000\000\000\000\000\000\000\000\000\000\000\000\000\000\000\000\000\000\000\000\000\000\000\000\000\000\000\000\000\000\000\000\000\000\000\000\000\000\000\000\000\000\000\000\000\000\000\000\000\000\000\000\000\000\000\000\000\000\000\000\000\000\000\000\000\000\000\000\000\000\000\000\000\000\000\000\000\000\000\000\000\000\000\000\000\000\000\000\000\000\000\000\000\000\000\000\000\000\000\000\000\000\000\000\000\000\000\000\000\000\000\000\000\000\000\000\000\000\000\000\000\000\000\000\000\000\000\000\000\000\000\000\000\000\000\000\000\000\000\000\000\000\000\000\000\000\000\000\000\000\000\000\000\000\000\000\000\000\000\000\000\000\000\000\000\000\000\000\000\000\000\000\000\000\000\000\000\000\000\000\000\000\000\000\000\000\000\000\000\000\000\000\000\000\000\000\000\000\000\000\000\000\000\000\000\000\000\000\000\000\000\000\000\000\000\000\000\000\000\000\000\000\000\000\000\000\000\000\000\000\000\000\000\000\000\000\000\000\000\000\000\000\000\000\000\000\000\000\000\000\000\000\000\000\000\000\000\000\000\000\000\000\000\000\000\000\000\000\000\000\000\000\000\000\000\000\000\000\000\000\000\000\000\000\000\000\000\000\000\000\000\000\000\000\000\000\000\000\000\000\000\000\000\000\000\000\000\000\000\000\000\000\000\000\000\000\000\000\000\000\000\000\000\000\000\000\000\000\000\000\000\000\000\000\000\000\000\000\000\000\000\000\000\000\000\000\000\000\000\000\000\000\000\000\000\000\000\000\000\000\000\000\000\000\000\000\000\000\000\000\000\000\000\000\000\000\000\000\000\000\000\000\000\000\000\000\000\000\000\000\000\000\000\000\000\000\000\000\000\000\000\000\000\000\000\000\000\000\000\000\000\000\000\000\000\000\000\000\000\000\000\000\000\000\000\000\000\000\000\000\000\000\000\000\000\000\000\000\000\000\000\000\000\000\000\000\000\000\000\000\000\000\000\000\000\000\000\000\000\000\000\000\000\000\000\000\000\000\000\000\000\000\000\000\000\000\000\000\000\000\000\000\000\000\000\000\000\000\000\000\000\000\000\000\000\000\000\000\000\000\000\000\000\000\000\000\000\000\000\000\000\000\000\000\000\000\000\000\000\000\000\000\000\000\000\000\000\000\000\000\000\000\000\000\000\000\000\000\000\000\000\000\000\000\000\000\000\000\000\000\000\000\000\000\000\000\000\000\000\000\000\000\000\000\000\000\000\000\000\000\000\000\000\000\000\000\000\000\000\000\000\000\000\000\000\000\000\000\000\000\000\000\000\000\000\000\000\000\000\000\000\000\000\000\000\000\000\000\000\000\000\000\000\000\000\000\000\000\000\000\000\000\000\000\000\000\000\000\000\000\000\000\000\000\000\000\000\000\000\000\000\000\000\000\000\000\000\000\000\000\000\000\000\000\000\000\000\000\000\000\000\000\000\000\000\000\000\000\000\000\000\000\000\000\000\000\000\000\000\000\000\000\000\000\000\000\000\000\000\000\000\000\000\000\000\000\000\000\000\000\000\000\000\000\000\000\000\000\000\000\000\000\000\000\000\000\000\000\000\000\000\000\000\177ELF\002\001\001@\002\000\000\000\000\000\000\000\003\000\340\000\001\000\000\000\000\000\000\000\000\000\000\000@\000\000\000\000\000\000\000\310\273\000\000\000\000\000\000?\005\000\000@\0008\000\b\000@\000\027\000\025\000\006\000\000\000\004\000\000\000@\000\000\000\000\000\000\000@\000\000\000\000\000\000\000@\000\000\000\000\000\000\000\300\001\000\000\000\000\000\000\300\001\000\000\000\000\000\000\b\000\000\000\000\000\000\000\001\000\000\000\004\000\000\000\000\000\000\000\000\000\000\000\000\000\000\000\000\000\000\000\000\000\000\000\000\000\000\000I\024\000\000\000\000\000\000I\024\000\000\000\000\000\000\000\020\000\000\000\000\000\000\001\000\000\000\005\000\000\000\000 \000\000\000\000\000\000\000 \000\000\000\000\000\000\000 \000\000\000\000\000\000\000\022\000\000\000\000\000\000\000\022\000\000\000\000\000\000\000\020\000\000\000\000\000\000\001\000\000\000\006\000\000\000\000@\000\000\000\000\000\000\000@\000\000\000\000\000\000\000@\000\000\000\000\000\000p\000\000\000\000\000\000\000p\000\000\000\000\000\000\000\000\020\000\000\000\000\000\000\002\000\000\000\006\000\000\000\000@\000\000\000\000\000\000\000@\000\000\000\000\000\000\000@\000\000\000\000\000\000p\000\000\000\000\000\000\000p\000\000\000\000\000\000\000\b\000\000\000\000\000\000\000R\345td\004\000\000\000\000@\000\000\000\000\000\000\000@\000\000\000\000\000\000\000@\000\000\000\000\000\000p\000\000\000\000\000\000\000\000\020\000\000\000\000\000\000\001\000\000\000\000\000\000\000Q\345td\006\000\000\000\000\000\000\000\000\000\000\000\000\000\000\000\000\000\000\000\000\000\000\000\000\000\000\000\000\000\000\000\000\000\000\000\000\000\000\000\000\000\000\000\000\000\000\000\000\000\000\000\004\000\000\000\004\000\000\000\000\002\000\000\000\000\000\000\000\002\000\000\000\000\000\000\000\002\000\000\000\000\000\000\244\r\000\000\000\000\000\000\244\r\000\000\000\000\000\000\004\000\000\000\000\000\000\000\007\000\000\000\215\r\000\000 \000\000\000AMDGPU\000\000\203\256amdhsa.kernels\221\336\000\020\253.agpr_count\000\245.args\334\0005\204\256.address_space\246global\247.offset\000\245.size\b\253.value_kind\255global_buffer\204\256.address_space\246global\247.offset\b\245.size\b\253.value_kind\255global_buffer\204\256.address_space\246global\247.offset\020\245.size\b\253.value_kind\255global_buffer\204\256.address_space\246global\247.offset\030\245.size\b\253.value_kind\255global_buffer\204\256.address_space\246global\247.offset \245.size\b\253.value_kind\255global_buffer\204\256.address_space\246global\247.offset(\245.size\b\253.value_kind\255global_buffer\204\256.address_space\246global\247.offset0\245.size\b\253.value_kind\255global_buffer\204\256.address_space\246global\247.offset8\245.size\b\253.value_kind\255global_buffer\204\256.address_space\246global\247.offset@\245.size\b\253.value_kind\255global_buffer\204\256.address_space\246global\247.offsetH\245.size\b\253.value_kind\255global_buffer\204\256.address_space\246global\247.offsetP\245.size\b\253.value_kind\255global_buffer\204\256.address_space\246global\247.offsetX\245.size\b\253.value_kind\255global_buffer\204\256.address_space\246global\247.offset`\245.size\b\253.value_kind\255global_buffer\204\256.address_space\246global\247.offseth\245.size\b\253.value_kind\255global_buffer\204\256.address_space\246global\247.offsetp\245.size\b\253.value_kind\255global_buffer\204\256.address_space\246global\247.offsetx\245.size\b\253.value_kind\255global_buffer\204\256.address_space\246global\247.offset\314\200\245.size\b\253.value_kind\255global_buffer\204\256.address_space\246global\247.offset\314\210\245.size\b\253.value_kind\255global_buffer\204\256.address_space\246global\247.offset\314\220\245.size\b\253.value_kind\255global_buffer\204\256.address_space\246global\247.offset\314\230\245.size\b\253.value_kind\255global_buffer\204\256.address_space\246global\247.offset\314\240\245.size\b\253.value_kind\255global_buffer\204\256.address_space\246global\247.offset\314\250\245.size\b\253.value_kind\255global_buffer\204\256.address_space\246global\247.offset\314\260\245.size\b\253.value_kind\255global_buffer\204\256.address_space\246global\247.offset\314\270\245.size\b\253.value_kind\255global_buffer\204\256.address_space\246global\247.offset\314\300\245.size\b\253.value_kind\255global_buffer\204\256.address_space\246global\247.offset\314\310\245.size\b\253.value_kind\255global_buffer\204\256.address_space\246global\247.offset\314\320\245.size\b\253.value_kind\255global_buffer\204\256.address_space\246global\247.offset\314\330\245.size\b\253.value_kind\255global_buffer\204\256.address_space\246global\247.offset\314\340\245.size\b\253.value_kind\255global_buffer\204\256.address_space\246global\247.offset\314\350\245.size\b\253.value_kind\255global_buffer\204\256.address_space\246global\247.offset\314\360\245.size\b\253.value_kind\255global_buffer\203\247.offset\314\370\245.size\004\253.value_kind\250by_value\203\247.offset\314\374\245.size\004\253.value_kind\250by_value\203\247.offset\315\001\000\245.size\004\253.value_kind\250by_value\203\247.offset\315\001\004\245.size\004\253.value_kind\250by_value\203\247.offset\315\001\b\245.size\004\253.value_kind\250by_value\203\247.offset\315\001\f\245.size\004\253.value_kind\250by_value\203\247.offset\315\001\020\245.size\004\253.value_kind\250by_value\203\247.offset\315\001\030\245.size\b\253.value_kind\250by_value\203\247.offset\315\001 \245.size\b\253.value_kind\250by_value\203\247.offset\315\001(\245.size\b\253.value_kind\250by_value\203\247.offset\315\0010\245.size\b\253.value_kind\250by_value\203\247.offset\315\0018\245.size\b\253.value_kind\250by_value\203\247.offset\315\001@\245.size\b\253.value_kind\250by_value\203\247.offset\315\001H\245.size\b\253.value_kind\250by_value\203\247.offset\315\001P\245.size\b\253.value_kind\250by_value\203\247.offset\315\001X\245.size\b\253.value_kind\250by_value\203\247.offset\315\001`\245.size\b\253.value_kind\250by_value\203\247.offset\315\001h\245.size\b\253.value_kind\250by_value\203\247.offset\315\001p\245.size\b\253.value_kind\250by_value\203\247.offset\315\001x\245.size\b\253.value_kind\250by_value\203\247.offset\315\001\200\245.size\b\253.value_kind\250by_value\203\247.offset\315\001\210\245.size\b\253.value_kind\250by_value\271.group_segment_fixed_size\000\266.kernarg_segment_align\b\265.kernarg_segment_size\315\001\220\251.language\250OpenCL C\261.language_version\222\002\000\270.max_flat_workgroup_size\315\004\000\245.name\331]_Z6kernelPdS_S_S_S_S_S_S_S_S_S_S_S_S_S_S_S_S_S_S_S_S_S_S_S_S_S_S_S_S_S_iiiiiiiddddddddddddddd\273.private_segment_fixed_size\000\253.sgpr_countb\261.sgpr_spill_count\000\247.symbol\331`_Z6kernelPdS_S_S_S_S_S_S_S_S_S_S_S_S_S_S_S_S_S_S_S_S_S_S_S_S_S_S_S_S_S_iiiiiiiddddddddddddddd.kd\253.vgpr_countd\261.vgpr_spill_count\000\257.wavefront_size@\255amdhsa.target\271amdgcn-amd-amdhsa--gfx90a\256amdhsa.version\222\001\001\000\000\000\000\000\000\000\000\000\000\000\000\000\000\000\000\000\000\000\000\000\000\000\000\000\000\000\000\000\000\000\001\000\000\000\022\003\007\000\000 \000\000\000\000\000\000\354\r\000\000\000\000\000\000\300\000\000\000!\003\006\000@\024\000\000\000\000\000\000\001\000\000\000\000\000\000\000\355\000\000\000!\003\006\000A\024\000\000\000\000\000\000\001\000\000\000\000\000\000\000\236\001\000\000!\003\006\000E\024\000\000\000\000\000\000\001\000\000\000\000\000\000\000\312\001\000\000!\003\006\000F\024\000\000\000\000\000\000\001\000\000\000\000\000\000\000\367\001\000\000!\003\006\000G\024\000\000\000\000\000\000\001\000\000\000\000\000\000\000_\000\000\000\021\003\006\000\000\024\000\000\000\000\000\000@\000\000\000\000\000\000\000\031\001\000\000!\003\006\000B\024\000\000\000\000\000\000\001\000\000\000\000\000\000\000E\001\000\000!\003\006\000C\024\000\000\000\000\000\000\001\000\000\000\000\000\000\000r\001\000\000!\003\006\000D\024\000\000\000\000\000\000\001\000\000\000\000\000\000\000#\002\000\000!\003\006\000H\024\000\000\000\000\000\000\001\000\000\000\000\000\000\000\002\000\000\000\001\000\000\000\004\000\000\000\032\000\000\000\000\020\b \000\000\000 \002\000\202\000\021\000\004\020\002\000\b \020\000\000@\000\004\b\000\000\b\000\000\001\000\000\000\007\000\000\000`Z\354\\\312\227QN|[\344\007r\351\343\221\f\230QN\277[\344\007<\220\373vP\351\343\221\352\227QN\234[\344\007\223\351\343\221\f\000\000\000\f\000\000\000\001\000\000\000\006\000\000\000\000\000\000\000\000\000\000\000\007\000\000\000\013\000\000\000\000\000\000\000\000\000\000\000\000\000\000\000\n\000\000\000\000\000\000\000\000\000\000\000\000\000\000\000\000\000\000\000\000\000\000\000\002\000\000\000\000\000\000\000\000\000\000\000\004\000\000\000\000\000\000\000\005\000\000\000\b\000\000\000\t\000\000\000\003\000\000\000\000_Z6kernelPdS_S_S_S_S_S_S_S_S_S_S_S_S_S_S_S_S_S_S_S_S_S_S_S_S_S_S_S_S_S_iiiiiiiddddddddddddddd\000_Z6kernelPdS_S_S_S_S_S_S_S_S_S_S_S_S_S_S_S_S_S_S_S_S_S_S_S_S_S_S_S_S_S_iiiiiiiddddddddddddddd.kd\000_ZN17__HIP_CoordinatesI15__HIP_ThreadIdxE1xE\000_ZN17__HIP_CoordinatesI14__HIP_BlockIdxE1xE\000_ZN17__HIP_CoordinatesI14__HIP_BlockDimE1xE\000_ZN17__HIP_CoordinatesI15__HIP_ThreadIdxE1yE\000_ZN17__HIP_CoordinatesI14__HIP_BlockIdxE1yE\000_ZN17__HIP_CoordinatesI14__HIP_BlockDimE1yE\000_ZN17__HIP_CoordinatesI15__HIP_ThreadIdxE1zE\000_ZN17__HIP_CoordinatesI14__HIP_BlockIdxE1zE\000_ZN17__HIP_CoordinatesI14__HIP_BlockDimE1zE\000\000\000\000\000\000\000\000\000\000\000\000\000\000\000\000\000\000\000\000\000\000\000\000\000\000\000\000\000\000\000\000\000\000\000\000\000\000\220\001\000\000\000\000\000\000\000\f\000\000\000\000\000\000\000\000\000\000\000\000\000\000\000\000\000\000\000\000\000\000\000\000\000\000\030\000\000\000\f\003\257\000\220\023\000\000\013\000\000\000\000\000\000\000\000\000\000\000\000\000\000\000\000\000\000\000\000\000\000\000\000\000\000\000\000\000\000\000\000\000\000\000\000\000\000\000\000\000\000\000\000\000\000\000\000\000\000\000\000\000\000\000\000\000\000\000\000\000\000\000\000\000\000\000\000\000\000\000\000\000\000\000\000\000\000\000\000\000\000\000\000\000\000\000\000\000\000\000\000\000\000\000\000\000\000\000\000\000\000\000\000\000\000\000\000\000\000\000\000\000\000\000\000\000\000\000\000\000\000\000\000\000\000\000\000\000\000\000\000\000\000\000\000\000\000\000\000\000\000\000\000\000\000\000\000\000\000\000\000\000\000\000\000\000\000\000\000\000\000\000\000\000\000\000\000\000\000\000\000\000\000\000\000\000\000\000\000\000\000\000\000\000\000\000\000\000\000\000\000\000\000\000\000\000\000\000\000\000\000\000\000\000\000\000\000\000\000\000\000\000\000\000\000\000\000\000\000\000\000\000\000\000\000\000\000\000\000\000\000\000\000\000\000\000\000\000\000\000\000\000\000\000\000\000\000\000\000\000\000\000\000\000\000\000\000\000\000\000\000\000\000\000\000\000\000\000\000\000\000\000\000\000\000\000\000\000\000\000\000\000\000\000\000\000\000\000\000\000\000\000\000\000\000\000\000\000\000\000\000\000\000\000\000\000\000\000\000\000\000\000\000\000\000\000\000\000\000\000\000\000\000\000\000\000\000\000\000\000\000\000\000\000\000\000\000\000\000\000\000\000\000\000\000\000\000\000\000\000\000\000\000\000\000\000\000\000\000\000\000\000\000\000\000\000\000\000\000\000\000\000\000\000\000\000\000\000\000\000\000\000\000\000\000\000\000\000\000\000\000\000\000\000\000\000\000\000\000\000\000\000\000\000\000\000\000\000\000\000\000\000\000\000\000\000\000\000\000\000\000\000\000\000\000\000\000\000\000\000\000\000\000\000\000\000\000\000\000\000\000\000\000\000\000\000\000\000\000\000\000\000\000\000\000\000\000\000\000\000\000\000\000\000\000\000\000\000\000\000\000\000\000\000\000\000\000\000\000\000\000\000\000\000\000\000\000\000\000\000\000\000\000\000\000\000\000\000\000\000\000\000\000\000\000\000\000\000\000\000\000\000\000\000\000\000\000\000\000\000\000\000\000\000\000\000\000\000\000\000\000\000\000\000\000\000\000\000\000\000\000\000\000\000\000\000\000\000\000\000\000\000\000\000\000\000\000\000\000\000\000\000\000\000\000\000\000\000\000\000\000\000\000\000\000\000\000\000\000\000\000\000\000\000\000\000\000\000\000\000\000\000\000\000\000\000\000\000\000\000\000\000\000\000\000\000\000\000\000\000\000\000\000\000\000\000\000\000\000\000\000\000\000\000\000\000\000\000\000\000\000\000\000\000\000\000\000\000\000\000\000\000\000\000\000\000\000\000\000\000\000\000\000\000\000\000\000\000\000\000\000\000\000\000\000\000\000\000\000\000\000\000\000\000\000\000\000\000\000\000\000\000\000\000\000\000\000\000\000\000\000\000\000\000\000\000\000\000\000\000\000\000\000\000\000\000\000\000\000\000\000\000\000\000\000\000\000\000\000\000\000\000\000\000\000\000\000\000\000\000\000\000\000\000\000\000\000\000\000\000\000\000\000\000\000\000\000\000\000\000\000\000\000\000\000\000\000\000\000\000\000\000\000\000\000\000\000\000\000\000\000\000\000\000\000\000\000\000\000\000\000\000\000\000\000\000\000\000\000\000\000\000\000\000\000\000\000\000\000\000\000\000\000\000\000\000\000\000\000\000\000\000\000\000\000\000\000\000\000\000\000\000\000\000\000\000\000\000\000\000\000\000\000\000\000\000\000\000\000\000\000\000\000\000\000\000\000\000\000\000\000\000\000\000\000\000\000\000\000\000\000\000\000\000\000\000\000\000\000\000\000\000\000\000\000\000\000\000\000\000\000\000\000\000\000\000\000\000\000\000\000\000\000\000\000\000\000\000\000\000\000\000\000\000\000\000\000\000\000\000\000\000\000\000\000\000\000\000\000\000\000\000\000\000\000\000\000\000\000\000\000\000\000\000\000\000\000\000\000\000\000\000\000\000\000\000\000\000\000\000\000\000\000\000\000\000\000\000\000\000\000\000\000\000\000\000\000\000\000\000\000\000\000\000\000\000\000\000\000\000\000\000\000\000\000\000\000\000\000\000\000\000\000\000\000\000\000\000\000\000\000\000\000\000\000\000\000\000\000\000\000\000\000\000\000\000\000\000\000\000\000\000\000\000\000\000\000\000\000\000\000\000\000\000\000\000\000\000\000\000\000\000\000\000\000\000\000\000\000\000\000\000\000\000\000\000\000\000\000\000\000\000\000\000\000\000\000\000\000\000\000\000\000\000\000\000\000\000\000\000\000\000\000\000\000\000\000\000\000\000\000\000\000\000\000\000\000\000\000\000\000\000\000\000\000\000\000\000\000\000\000\000\000\000\000\000\000\000\000\000\000\000\000\000\000\000\000\000\000\000\000\000\000\000\000\000\000\000\000\000\000\000\000\000\000\000\000\000\000\000\000\000\000\000\000\000\000\000\000\000\000\000\000\000\000\000\000\000\000\000\000\000\000\000\000\000\000\000\000\000\000\000\000\000\000\000\000\000\000\000\000\000\000\000\000\000\000\000\000\000\000\000\000\000\000\000\000\000\000\000\000\000\000\000\000\000\000\000\000\000\000\000\000\000\000\000\000\000\000\000\000\000\000\000\000\000\000\000\000\000\000\000\000\000\000\000\000\000\000\000\000\000\000\000\000\000\000\000\000\000\000\000\000\000\000\000\000\000\000\000\000\000\000\000\000\000\000\000\000\000\000\000\000\000\000\000\000\000\000\000\000\000\000\000\000\000\000\000\000\000\000\000\000\000\000\000\000\000\000\000\000\000\000\000\000\000\000\000\000\000\000\000\000\000\000\000\000\000\000\000\000\000\000\000\000\000\000\000\000\000\000\000\000\000\000\000\000\000\000\000\000\000\000\000\000\000\000\000\000\000\000\000\000\000\000\000\000\000\000\000\000\000\000\000\000\000\000\000\000\000\000\000\000\000\000\000\000\000\000\000\000\000\000\000\000\000\000\000\000\000\000\000\000\000\000\000\000\000\000\000\000\000\000\000\000\000\000\000\000\000\000\000\000\000\000\000\000\000\000\000\000\000\000\000\000\000\000\000\000\000\000\000\000\000\000\000\000\000\000\000\000\000\000\000\000\000\000\000\000\000\000\000\000\000\000\000\000\000\000\000\000\000\000\000\000\000\000\000\000\000\000\000\000\000\000\000\000\000\000\000\000\000\000\000\000\000\000\000\000\000\000\000\000\000\000\000\000\000\000\000\000\000\000\000\000\000\000\000\000\000\000\000\000\000\000\000\000\000\000\000\000\000\000\000\000\000\000\000\000\000\000\000\000\000\000\000\000\000\000\000\000\000\000\000\000\000\000\000\000\000\000\000\000\000\000\000\000\000\000\000\000\000\000\000\000\000\000\000\000\000\000\000\000\000\000\000\000\000\000\000\000\000\000\000\000\000\000\000\000\000\000\000\000\000\000\000\000\000\000\000\000\000\000\000\000\000\000\000\000\000\000\000\000\000\000\000\000\000\000\000\000\000\000\000\000\000\000\000\000\000\000\000\000\000\000\000\000\000\000\000\000\000\000\000\000\000\000\000\000\000\000\000\000\000\000\000\000\000\000\000\000\000\000\000\000\000\000\000\000\000\000\000\000\000\000\000\000\000\000\000\000\000\000\000\000\000\000\000\000\000\000\000\000\000\000\000\000\000\000\000\000\000\000\000\000\000\000\000\000\000\000\000\000\000\000\000\000\000\000\000\000\000\000\000\000\000\000\000\000\000\000\000\000\000\000\000\000\000\000\000\000\000\000\000\000\000\000\000\000\000\000\000\000\000\000\000\000\000\000\000\000\000\000\000\000\000\000\000\000\000\000\000\000\000\000\000\000\000\000\000\000\000\000\000\000\000\000\000\000\000\000\000\000\000\000\000\000\000\000\000\000\000\000\000\000\000\000\000\000\000\000\000\000\000\000\000\000\000\000\000\000\000\000\000\000\000\000\000\000\000\000\000\000\000\000\000\000\000\000\000\000\000\000\000\000\000\000\000\000\000\000\000\000\000\000\000\000\000\000\000\000\000\000\000\000\000\000\000\000\000\000\000\000\000\000\000\000\000\000\000\000\000\000\000\000\000\000\000\000\000\000\000\000\000\000\000\000\000\000\000\000\000\000\000\000\000\000\000\000\000\000\000\000\000\000\000\000\000\000\000\000\000\000\000\000\000\000\000\000\000\000\000\000\000\000\000\000\000\000\000\000\000\000\000\000\000\000\000\000\000\000\000\000\000\000\000\000\000\000\000\000\000\000\000\000\000\000\000\000\000\000\000\000\000\000\000\000\000\000\000\000\000\000\000\000\000\000\000\000\000\000\000\000\000\000\000\000\000\000\000\000\000\000\000\000\000\000\000\000\000\000\000\000\000\000\000\000\000\000\000\000\000\000\000\000\000\000\000\000\000\000\000\000\000\000\000\000\000\000\000\000\000\000\000\000\000\000\000\000\000\000\000\000\000\000\000\000\000\000\000\000\000\000\000\000\000\000\000\000\000\000\000\000\000\000\000\000\000\000\000\000\000\000\000\000\000\000\000\000\000\000\000\000\000\000\000\000\000\000\000\000\000\000\000\000\000\000\000\000\000\000\000\000\000\000\000\000\000\000\000\000\000\000\000\000\000\000\000\000\000\000\000\000\000\000\000\000\000\000\000\000\000\000\000\000\000\000\000\000\000\000\000\000\000\000\000\000\000\000\000\000\000\000\000\000\000\000\000\000\000\000\000\000\000\000\000\000\000\000\000\000\000\000\000\000\000\000\000\000\000\000\000\000\000\000\000\000\000\000\000\000\000\000\000\000\000\000\000\000\000\000\000\000\000\000\000\000\000\000\000\000\000\000\000\000\000\000\000\000\000\000\000\000\000\000\000\000\000\000\000\000\000\000\000\000\000\000\000\000\000\000\000\000\000\000\000\000\000\000\000\000\000\000\000\000\000\000\000\000\000\000\000\000\000\000\000\000\000\000\000\000\000\000\000\000\000\000\000\000\000\000\000\000\000\000\000\000\000\000\000\000\000\000\000\000\000\000\000\000\000\000\000\000\000\000\000\000\000\000\000\000\000\000\000\000\000\000\000\000\000\000\000\000\000\000\000\000\000\000\000\000\000\000\000\000\000\000\000\000\000\000\000\000\000\000\000\000\000\000\000\000\000\000\000\000\000\000\000\000\000\000\000\000\000\000\000\000\000\000\000\000\000\000\000\000\000\000\000\000\000\000\000\000\000\000\000\000\000\000\000\000\000\000\000\000\000\000\000\000\000\000\000\000\000\000\000\000\000\000\000\000\000\000\000\000\000\000\000\000\000\000\000\000\000\000\000\000\000\000\000\000\000\000\000\000\000\000\000\000\000\000\000\000\000\000\000\000\000\000\000\000\000\000\000\000\000\000\000\000\000\000\000\000\000\000\000\000\000\000\000\000\000\000\000\000\000\000\000\000\000\000\000\000\000\000\000\000\000\000\000\000\000\000\000\000\000\000\000\000\000\000\000\000\000\000\000\000\000\000\000\000\000\000\000\000\000\000\000\000\000\000\000\000\000\000\000\000\000\000\000\000\000\000\000\000\000\000\000\000\000\000\000\000\000\000\000\000\000\000\000\000\000\000\000\000\000\000\000\000\000\000\000\000\000\000\000\000\000\000\000\000\000\000\000\000\000\000\000\000\000\000\000\000\000\000\000\000\000\000\000\000\000\000\000\000\000\000\000\000\000\000\000\000\000\000\000\000\000\000\000\000\000\000\000\000\000\000\000\000\000\000\000\000\000\000\000\000\000\000\000\000\000\000\000\000\000\000\000\000\000\000\000\000\000\000\000\000\000\000\000\000\000\000\000\000\000\000\000\000\000\000\000\000\000\000\000\000\000\000\000\000\000\000\000\000\000\000\000\000\000\000\000\000\000\000\000\000\000\000\000\000\000\000\000\000\000\000\000\000\000\000\000\000\000\000\000\000\000\000\000\000\000\000\000\000\000\000\000\000\000\000\000\000\000\000\000\000\000\000\000\000\000\000\000\000\000\000\000\000\000\000\000\000\000\000\000\000\000\000\000\000\000\000\000\000\000\000\000\000\000\000\000\000\000\000\000\000\000\000\000\000\000\000\000\000\000\000\000\000\000\000\000\000\000\000\000\000\000\000\000\000\000\000\000\000\000\000\000\000\000\000\000\000\000\000\000\000\000\000\000\000\000\000\000\000\000\000\000\000\000\000\000\000\000\000\000\000\000\000\000\000\000\000\000\000\000\000\000\000\000\000\000\000\000\000\000\000\000\000\000\000\000\000\000\000\000\000\000\000\000\000\000\000\000\000\000\000\000\000\000\000\000\000\000\000\000\000\000\000\000\000\000\000\000\000\000\000\000\000\000\000\000\000\000\000\000\000\000\000\000\000\000\000\000\000\000\000\000\000\000\000\000\000\000\000\000\000\000\000\000\000\000\000\000\000\000\000\000\000\000\000\000\000\000\000\000\000\000\000\000\000\000\000\000\000\000\000\000\000\000\000\000\000\000\000\000\000\000\000\000\000\000\000\000\000\000\000\000\000\000\000\000\000\000\000\000\000\000\000\000\000\000\000\000\000\000\000\000\000\000\000\000\000\000\002\000\002\300\b\000\000\000B\000\002\300\004\000\000\000\003\026\n\300\370\000\000\000\377\000\002&\377\003\000\000\177\300\214\277\000\377\000\206\377\377\000\000\001\220\002\217\001\377\001\206\377\377\000\000\b\001\b\222\b\002\004h\t\002\t\222\001\000\310\321\000\025)\002\t\002\bh\n\000\n\222\000\000\310\321\000))\002\n\000\000hX\004\214}\000\000\306\320Y\b\002\000j\000\200\206Z\000\214}\000j\200\206\000 \202\276Z\003\210\277\003\027\n\300\b\001\000\000\003\r\022\300\000\000\000\000\003\t\022\300@\000\000\000\003\002\022\300\200\000\000\000\003\000\n\300\360\000\000\000\003\025\n\300\340\000\000\000\003\006\016\300\300\000\000\000\177\300\214\277\000\002\350\321\000\271\020\004\016\002\350\321\000\267\b\004\237\034\036\"0\000\217\322\203\034\002\0005\002\002~4`\0042\001c\0068]\034\000h-\002\002~,`<2\001c>8\237\000\002\"*\000\217\322\203\000\002\000/\002\000~.T82\000W:81\002\000~0T02\000W283\002\000~2T(2\000W*8\t\002\000~\bT 2\000W\"8\013\002\000~\nT\0242\000W\02687\002\002~6`\b2\001c\n8\r\002\000~\fTX2\000WZ8\017\002\000~\016TP2\000WR8\021\002\000~\020TH2\000WJ8\023\002\000~\022T@2\000WB8\000\200T\334\036\000\177.\000\200T\334\034\000\1774\025\002\000~\024T42\000\200T\334\030\000\1776\000W68\000\200T\334\024\000\1772\027\002\000~\026T,2\000W.8\031\002\000~\030T$2\000W&8\033\002\000~\032T\0302\000W\0328\035\002\000~\034T\0202\000W\0228\037\002\000~\036T\f2\000W\0168\000\200T\334\002\000\177\"U\002\000~TT\0042\000W\0068W\002\002~VT\0002\001W\0028\001\002\036~\000\200T\334\004\000\177<\000T\b2\017W\n8\000\200T\334\020\000\177>\000\200T\334\n\000\1778\000\200T\334,\000\177:\000\200T\334(\000\177V\000\200T\334$\000\177P\000\200T\334 \000\177R\000\200T\334\032\000\177T\000\200T\334\026\000\177N\000\200T\334\022\000\177@\000\200T\334\f\000\177B\000\200T\334\b\000\177D\000\200T\334\006\000\177F\000\200T\334\002\000\177H\000\200T\334\000\000\177J\000\200T\334\004\000\177L9\002\036~8`L2\017cN8\000\200T\334&\000\177&?\002\036~>`\2642\017c\2668\000\200T\334Z\000\177\\\003\021\022\300\030\001\000\000;\002\036~uO\214\277.\000\200\322.i\002\000tO\214\277.\000\200\322.m\002\0004\000\200\3224m\002@sO\214\277.\000\200\322.e\002\000r@\214\277X\000\201\322\"\215\000\000^\000\314\321\"E\"\201pO\214\277.\000\200\322.}\002\000\177\017\214\277.\000\200\322.q\002\000~\017\214\277.\000\200\322.u\002\000}\017\214\277.\000\200\322.\255\002\000|\017\214\277.\000\200\322.\241\002\000{\017\214\277.\000\200\322.\245\002\000z\017\214\277.\000\200\322.\251\002\000y\017\214\277.\000\200\322.\235\002\000x\017\214\277.\000\200\322.\201\002\000w\017\214\277.\000\200\322.\205\002\000v\017\214\277.\000\200\322.\211\002\000u\017\214\277.\000\200\322.\215\002\000t\017\214\277.\000\200\322.\221\002\000s\017\214\277.\000\200\322.\225\002\0006\000\201\322<\211\000\000r\017\214\277<\000\200\322.\231\002\000.\000\200\3224\255\002\000.\000\200\322.\241\002@.\000\200\322.\245\002\000.\000\200\322.\251\002@.\000\200\322.\235\002\000.\000\200\322.\201\002@.\000\200\322.\205\002\0004\000\200\322.\211\002@.\000\314\321X\275\332\204q\017\214\277X\000\201\322&]\002\000\360\260h\b6\002\341\321<y\322\0046K\274~\377\000\203\276\000\000\b@\200\000\202\2762\000\200\3222}\002@`\000\314\3216\275\312#^\301\274\b`\000\314\3216\275\312#^\301\274\b`j\341\3214y\322\004b\000\201\322`\275\002\0006\000\314\3216\305\202%2\000\200\3222\255\002\000\000\000\200\2776\000\343\3216\275\212\005bP\263\323\002\004\000\030:`\2742b\000\201\322J\304\002\000\017c\2768b\000\201\322b]\002\000=\002\036~<`\3002b\000\201\322b\231\000\000\017c\3028p\017\214\277\\\000\314\321\\\235\210\205\000\200T\334^\000\1770A\002\036~@T\2742LD\270\b\017W\2768\000\200T\334`\000\177`b\000\201\322J\340\001\000\000\200t\334Z\\\177\000\000\200T\334^\000\177ZP\002\270~6\000\337\3216y\322\004Q\002\272~4\000\201\322b]\002\000b\000\201\3224\231\000\0004\000\201\322L\270\002\000\\\000\201\3224E\002\000C\002\036~2\000\200\3222\241\002@2\000\200\3222\245\002@2\000\200\3222\251\002\0002\000\200\3222\215\002\0002\000\200\3222\221\002@2\000\200\3222\225\002\0002\000\200\3222\231\002@s\017\214\277>\000\201\322.a\002\000\360|d\bP\004\341\321<y\312\004PK\244~p\017\214\2774\000\314\321N\264\212\005\\mh\b\000\200t\334^4\177\000BTh2\017Wj8\000\200T\3344\000\177Z%\002\036~$T\2742\017W\2768'\002\036~&T\2502\017W\2528Vj\341\3212y\312\004)\002\036~p\017\214\277Z\000\314\321N\264\212\005Z\000\314\321\\mj%\000\200t\3344Z\177\000\000\200T\334^\000\1774Z\000\314\321P\245\312#R\265\244\bZ\000\314\321P\245\312#R\265\244\bZ\000\201\322V\245\002\000P\000\314\321P\265Z%P\000\343\321P\245j\0052\000\337\321Py\312\004(T\2402\017W\2428+\002\036~p\017\214\2774\000\314\321Nh\212\005\\eh\b\000\200t\334^4\177\000\000\200T\334T\000\1774p\017\214\2774\000\314\321Nh\212\0054\000\314\321\\e\322$\000\200t\334T4\177\000\000\200T\334P\000\177R4\000\200\3228u\002@8\000\200\3224\235\002\0008\000\200\3228\201\002@8\000\200\3228\205\002@8\000\200\3228\211\002\0008\000\200\3228\215\002\0008\000\200\3228\221\002@8\000\200\3228\225\002@4\000\201\322.\301\002\0008\000\200\3228\231\002\000\360hp\b:\004\341\321<y\342\004:K\200~*T\2042\017W\2068D\000\314\321:\201\312#@\211\200\bD\000\314\321:\201\312#*j\341\3218y\342\004@\211\200\bD\000\201\322*\201\002\000*\000\314\321:\211\252$\000\000\200\277*\000\343\321*\201\022\005*\000\337\321*y\342\004:\000\201\3222e\002\0006mt\b\003\t\016\300`\001\000\000*Ut\b\003\001\n\300\200\001\000\000H\000\201\3226\341\001\000p\017\214\2778\000\314\321N\244\212\005\\Up\b\000\200t\334P8\177\000\000\200T\334B\000\1778p\017\214\277Np\304\b8\000\314\321\\U\212%\000\200t\334B8\177\000\000\200T\334\036\000\177@B\000\201\322\"\005\000\000\377\000\203\276\000\000\370?:\000\201\322:\005\000\000\377\000\203\276\000\000\030\300\"\000\201\322\"\005\000\0008\000\201\322>e\002\000\"\000\314\321\"]\362\004Xmp\b\"\000\314\321<u\212$4Up\bB\000\314\321B]\362\004\177\300\214\277D\000\201\322BI\000\000H\000\314\3216\221\352\204J\000\314\321Xm\342\204\\[\002\222p\017\214\277@\000\201\322@\245\000\000(D\200\b\"\000\314\3218U\000%\000\200t\334\036\"\177\000\000\200T\334\034\000\177\034^\034<h@\000\201\322<I\000\000\237<>\"H\000\314\321@\221\022\005\016\000\217\322\203<\002\000F\000\201\322@m\002\000\004\224\220\b/\002F~.\034D2\004\260\214\b#\037F80\034\0342J\000\314\3214U\342\204p\017\214\277\034\000\314\321R8\"\005\034\000\200\322F9\002\000\b\200t\334\"\034\177\000\000\200T\334\030\000\177\0301\0028~\034\037\0368\"\000\201\3222\341\001\000\"\000\314\3212E\352\204\"\000\314\321@E\022\0053\002:~p\017\214\277R0\220\b\030\000\200\322H\215\002@\370\237t\334\016\030\177\000\000\200T\334\024\000\177\016[<(h\237(*\"H\000\314\321>e\342\204\030\000\217\322\203(\002\000F\000\201\322@e\002\000\004\220D\b2082\004|\214\b\0353:8\t\002*~p\017\214\277\016\000\314\321R\034\212\004\016\000\200\322F\035\002\000\000\200t\334\034\016\177\000\000\200T\334\020\000\177\020[<\034l\237\034\036\"\034\000\217\322\203\034\002\000\b8\2202\025;\2228\013\002\036~p\017\214\277R D\b\020\000\200\322\"\215\002@\000\200t\334H\020\177\000\000\200T\334\n\000\177\nF\000\201\322*\341\001\000\002< hF\000\314\321*\215\352\204\237 \"\"@\215\210\b\"\000\217\322\203 \002\000H\000\201\322@U\002\000\004\224\210\b\nD 2\004h\220\b\017G\"8\r\002\036~@\000\314\321&]\372\004p\017\214\277\n\000\314\321R\024\022\005\n\000\200\322H\025\002\000\000\200t\334\020\n\177\000\000\200T\334,\000\177\n\002< l\237 \"\"\036\000\217\322\203 \002\000\f< 2\017?\"8\0160X2\021\002\036~p\017\214\277R\024\210\b\n\000\200\322D\221\002@\000\200t\334\020\n\177\000\000\200T\334(\000\177(\017\002\024~\020\000\201\322<M\000\000<\000\200\3226e\002\000\n3Z8\n\000\201\322BM\000\000B\000\201\322\020y\002\000D\000\201\322<\341\001\000\006\200\204\b@\000\314\321@y\342\204<\000\314\321<\211\352\204<\000\314\321\020y*\004\006\200x\bp\017\214\277(\000\314\321RP\362\004(\000\200\322BQ\002\000\b\200t\334,(\177\000\000\200T\334$\000\177$\0208P2\017;R8\023\002\036~\022882\017;:8\025\002\036~\024002\017328\027\002\036~p\017\214\277RHx\b$\000\200\322<\205\002@\370\237t\334($\177\000\000\200T\334 \000\177 (\000\200\3226e\002@$\000\314\321&]\372\204,\000\201\322\020Q\002\000<\000\201\322(\341\001\000\006HX\b$\000\314\321$Q\342\204(\000\314\321(y\352\204(\000\314\321\020Q*\004\006HP\bp\017\214\277 \000\314\321R@\242\004 \000\200\322,A\002\000\b\200t\334\034 \177\000\000\200T\334\032\000\177\032\034\000\200\3226U\002\000 \000\201\322\034\341\001\000$\000\201\322\0209\002\000p\017\214\277R4P\b\032\000\200\322(Y\002@\370\237t\334\030\032\177\000\000\200T\334\026\000\177\026\032\000\314\321&]\322\004(\000\314\321\0329\342\204\0064H\b\032\000\314\321\034A\352\204\032\000\314\321\0205*\004\006P4\b\026D02\017G28\031\002\036~p\017\214\277\026\000\314\321R,j\004\026\000\200\322$-\002\000\b\200t\334\030\026\177\000\000\200T\334\022\000\177\022\030<,2\017?.8\030\000\200\3226U\002@\033\002\036~\034\000\201\322\0201\002\000p\017\214\277R$4\b\022\000\200\322\032I\002@\370\237t\334\026\022\177\000\000\200T\334\f\000\177\f\032<$2\026\000\314\321&]\322\204\032\000\201\322\030\341\001\000\017?&8\036\000\314\321\0261\342\204\006,8\b\026\000\314\321\0305\352\204\026\000\314\321\020-*\004\006<,\bp\017\214\277\f\000\314\321R\030Z\004\f\000\200\322\034\031\002\000\b\200t\334\022\f\177\000\000\200T\334\b\000\177\b\035\002\032~\034D\0302\rG\0328\022\000\200\3222U\002\000\030\000\201\322\020%\002\000p\017\214\277R\020,\b\b\000\200\322\0269\002@\370\237t\334\f\b\177\000\000\200T\334\006\000\177\006\002(\020h\237\020\022\"\b\000\217\322\203\020\002\000\037\002\030~\036\020\0202\f\023\0228\f\000\314\321.a\322\004\026\000\201\322\022\341\001\000\032\000\314\321\f%\342\204\006\0300\b\f\000\314\321\022-\352\204\f\000\314\321\020\031*\004\0064\030\bp\017\214\277\006\000\314\321R\f2\004\006\000\200\322\030\r\002\000\000\200t\334\b\006\177\000\000\200T\334\002\000\177\002\002\034\fl\237\f\016\"\006\000\217\322\203\f\002\000U\002\020~T\f\f2\b\017\0168\b\000\200\3222U\002@\022\000\201\322\020\021\002\000p\017\214\277R\004\030\b\002\000\200\322\f1\002@\000\200t\334\006\002\177\000\000\200T\334\000\000\177\000\002(\004l\237\004\006\"\002\000\217\322\203\004\002\000W\002\f~V\004\0042\006\007\0068\006\000\314\321.a\322\204\f\000\201\322\b\341\001\000\024\000\314\321\006\021\342\204\006\f$\b\006\000\314\321\b\031\352\204\020\r\024\b\006(\024\bp\017\214\277\000\000\314\321R\000*\004\000\000\200\322\022\001\002\000\000\200t\334\002\000\177\000\000\200T\334\004\000\177\000\002\034\004h\237\004\006\"\002\000\217\322\203\004\002\000\001\002\b~\000\004\0042\004\007\0068p\017\214\277R\000\024\b\000\000\200\322\n%\002@\000\200t\334\002\000\177\000\000\000\201\277\000\000\200\277\000\000\200\277\000\000\200\277\000\000\200\277\000\000\200\277\000\000\200\277\000\000\200\277\000\000\200\277\000\000\200\277\000\000\200\277\000\000\200\277\000\000\200\277\000\000\200\277\000\000\200\277\000\000\200\277\000\000\200\277\000\000\200\277\000\000\200\277\000\000\200\277\000\000\200\277\000\000\200\277\000\000\200\277\000\000\200\277\000\000\200\277\000\000\200\277\000\000\200\277\000\000\200\277\000\000\200\277\000\000\200\277\000\000\200\277\000\000\200\277\000\000\200\277\000\000\200\277\000\000\200\277\000\000\200\277\000\000\200\277\000\000\200\277\000\000\200\277\000\000\200\277\000\000\200\277\000\000\200\277\000\000\200\277\000\000\200\277\000\000\200\277\000\000\200\277\000\000\200\277\000\000\200\277\000\000\200\277\000\000\200\277\000\000\200\277\000\000\200\277\000\000\200\277\000\000\200\277\000\000\200\277\000\000\200\277\000\000\200\277\000\000\200\277\000\000\200\277\000\000\200\277\000\000\200\277\000\000\200\277\000\000\200\277\000\000\200\277\000\000\200\277\000\000\200\277\000\000\200\277\000\000\200\277\000\000\200\277\000\000\200\277\000\000\200\277\000\000\200\277\000\000\200\277\000\000\200\277\000\000\200\277\000\000\200\277\000\000\200\277\000\000\200\277\000\000\200\277\000\000\200\277\000\000\200\277\000\000\200\277\000\000\200\277\000\000\200\277\000\000\200\277\000\000\200\277\000\000\200\277\000\000\200\277\000\000\200\277\000\000\200\277\000\000\200\277\000\000\200\277\000\000\200\277\000\000\200\277\000\000\200\277\000\000\200\277\000\000\200\277\000\000\200\277\000\000\200\277\000\000\200\277\000\000\200\277\000\000\200\277\000\000\200\277\000\000\200\277\000\000\200\277\000\000\200\277\000\000\200\277\000\000\200\277\000\000\200\277\000\000\200\277\000\000\200\277\000\000\200\277\000\000\200\277\000\000\200\277\000\000\200\277\000\000\200\277\000\000\200\277\000\000\200\277\000\000\200\277\000\000\200\277\000\000\200\277\000\000\200\277\000\000\200\277\000\000\200\277\000\000\200\277\000\000\200\277\000\000\200\277\000\000\200\277\000\000\200\277\000\000\200\277\000\000\200\277\000\000\200\277\000\000\200\277\000\000\200\277\000\000\200\277\000\000\200\277\000\000\200\277\000\000\200\277\000\000\200\277\000\000\200\277\000\000\200\277\000\000\200\277\000\000\200\277\000\000\200\277\000\000\200\277\000\000\200\277\000\000\200\277\000\000\200\277\000\000\200\277\000\000\200\277\000\000\200\277\000\000\200\277\000\000\200\277\000\000\200\277\000\000\200\277\000\000\200\277\000\000\200\277\000\000\200\277\000\000\200\277\000\000\200\277\000\000\200\277\000\000\200\277\000\000\200\277\000\000\200\277\000\000\200\277\000\000\200\277\000\000\200\277\000\000\200\277\000\000\200\277\000\000\200\277\000\000\200\277\000\000\200\277\000\000\200\277\000\000\200\277\000\000\200\277\000\000\200\277\000\000\200\277\000\000\200\277\000\000\200\277\000\000\200\277\000\000\200\277\000\000\200\277\000\000\200\277\000\000\200\277\000\000\200\277\000\000\200\277\000\000\200\277\000\000\200\277\000\000\200\277\000\000\200\277\000\000\200\277\000\000\200\277\000\000\200\277\000\000\200\277\000\000\200\277\000\000\200\277\000\000\200\277\000\000\200\277\000\000\200\277\000\000\200\277\000\000\200\277\000\000\200\277\000\000\200\277\000\000\200\277\000\000\200\277\000\000\200\277\000\000\200\277\000\000\200\277\000\000\200\277\000\000\200\277\000\000\200\277\000\000\200\277\000\000\200\277\000\000\200\277\000\000\200\277\000\000\200\277\000\000\200\277\000\000\200\277\000\000\200\277\000\000\200\277\000\000\200\277\000\000\200\277\000\000\200\277\000\000\200\277\000\000\200\277\000\000\200\277\000\000\200\277\000\000\200\277\000\000\200\277\000\000\200\277\000\000\200\277\000\000\200\277\000\000\200\277\000\000\200\277\000\000\200\277\000\000\200\277\000\000\200\277\000\000\200\277\000\000\200\277\000\000\200\277\000\000\200\277\000\000\200\277\000\000\200\277\000\000\200\277\000\000\200\277\000\000\200\277\000\000\200\277\000\000\200\277\000\000\200\277\000\000\200\277\000\000\200\277\000\000\200\277\000\000\200\277\000\000\200\277\000\000\200\277\000\000\200\277\000\000\200\277\000\000\200\277\000\000\200\277\000\000\200\277\000\000\200\277\000\000\200\277\000\000\000\000\000\000\000\000\000\000\000\000\000\000\000\000\000\000\000\000\000\000\000\000\000\000\000\000\000\000\000\000\000\000\000\000\000\000\000\000\000\000\000\000\000\000\000\000\000\000\000\000\000\000\000\000\000\000\000\000\000\000\000\000\000\000\000\000\000\000\000\000\000\000\000\000\000\000\000\000\000\000\000\000\000\000\000\000\000\000\000\000\000\000\000\000\000\000\000\000\000\000\000\000\000\000\000\000\000\000\000\000\000\000\000\000\000\000\000\000\000\000\000\000\000\000\000\000\000\000\000\000\000\000\000\000\000\000\000\000\000\000\000\000\000\000\000\000\000\000\000\000\000\000\000\000\000\000\000\000\000\000\000\000\000\000\000\000\000\000\000\000\000\000\000\000\000\000\000\000\000\000\000\000\000\000\000\000\000\000\000\000\000\000\000\000\000\000\000\000\000\000\000\000\000\000\000\000\000\000\000\000\000\000\000\000\000\000\000\000\000\000\000\000\000\000\000\000\000\000\000\000\000\000\000\000\000\000\000\000\000\000\000\000\000\000\000\000\000\000\000\000\000\000\000\000\000\000\000\000\000\000\000\000\000\000\000\000\000\000\000\000\000\000\000\000\000\000\000\000\000\000\000\000\000\000\000\000\000\000\000\000\000\000\000\000\000\000\000\000\000\000\000\000\000\000\000\000\000\000\000\000\000\000\000\000\000\000\000\000\000\000\000\000\000\000\000\000\000\000\000\000\000\000\000\000\000\000\000\000\000\000\000\000\000\000\000\000\000\000\000\000\000\000\000\000\000\000\000\000\000\000\000\000\000\000\000\000\000\000\000\000\000\000\000\000\000\000\000\000\000\000\000\000\000\000\000\000\000\000\000\000\000\000\000\000\000\000\000\000\000\000\000\000\000\000\000\000\000\000\000\000\000\000\000\000\000\000\000\000\000\000\000\000\000\000\000\000\000\000\000\000\000\000\000\000\000\000\000\000\000\000\000\000\000\000\000\000\000\000\000\000\000\000\000\000\000\000\000\000\000\000\000\000\000\000\000\000\000\000\000\000\000\000\000\000\000\000\000\000\000\000\000\000\000\000\000\000\000\000\000\000\000\000\000\000\000\000\000\000\000\000\000\000\000\000\000\000\000\000\000\000\000\000\000\000\000\000\000\000\000\000\000\000\000\000\000\000\000\000\000\000\000\000\000\000\000\000\000\000\000\000\000\000\000\000\000\000\000\000\000\000\000\000\000\000\000\000\000\000\000\000\000\000\000\000\000\000\000\000\000\000\000\000\000\000\000\000\000\000\000\000\000\000\000\000\000\000\000\000\000\000\000\000\000\000\000\000\000\000\000\000\000\000\000\000\000\000\000\000\000\000\000\000\000\000\000\000\000\000\000\000\000\000\000\000\000\000\000\000\000\000\000\000\000\000\000\000\000\000\000\000\000\000\000\000\000\000\000\000\000\000\000\000\000\000\000\000\000\000\000\000\000\000\000\000\000\000\000\000\000\000\000\000\000\000\000\000\000\000\000\000\000\000\000\000\000\000\000\000\000\000\000\000\000\000\000\000\000\000\000\000\000\000\000\000\000\000\000\000\000\000\000\000\000\000\000\000\000\000\000\000\000\000\000\000\000\000\000\000\000\000\000\000\000\000\000\000\000\000\000\000\000\000\000\000\000\000\000\000\000\000\000\000\000\000\000\000\000\000\000\000\000\000\000\000\000\000\000\000\000\000\000\000\000\000\000\000\000\000\000\000\000\000\000\000\000\000\000\000\000\000\000\000\000\000\000\000\000\000\000\000\000\000\000\000\000\000\000\000\000\000\000\000\000\000\000\000\000\000\000\000\000\000\000\000\000\000\000\000\000\000\000\000\000\000\000\000\000\000\000\000\000\000\000\000\000\000\000\000\000\000\000\000\000\000\000\000\000\000\000\000\000\000\000\000\000\000\000\000\000\000\000\000\000\000\000\000\000\000\000\000\000\000\000\000\000\000\000\000\000\000\000\000\000\000\000\000\000\000\000\000\000\000\000\000\000\000\000\000\000\000\000\000\000\000\000\000\000\000\000\000\000\000\000\000\000\000\000\000\000\000\000\000\000\000\000\000\000\000\000\000\000\000\000\000\000\000\000\000\000\000\000\000\000\000\000\000\000\000\000\000\000\000\000\000\000\000\000\000\000\000\000\000\000\000\000\000\000\000\000\000\000\000\000\000\000\000\000\000\000\000\000\000\000\000\000\000\000\000\000\000\000\000\000\000\000\000\000\000\000\000\000\000\000\000\000\000\000\000\000\000\000\000\000\000\000\000\000\000\000\000\000\000\000\000\000\000\000\000\000\000\000\000\000\000\000\000\000\000\000\000\000\000\000\000\000\000\000\000\000\000\000\000\000\000\000\000\000\000\000\000\000\000\000\000\000\000\000\000\000\000\000\000\000\000\000\000\000\000\000\000\000\000\000\000\000\000\000\000\000\000\000\000\000\000\000\000\000\000\000\000\000\000\000\000\000\000\000\000\000\000\000\000\000\000\000\000\000\000\000\000\000\000\000\000\000\000\000\000\000\000\000\000\000\000\000\000\000\000\000\000\000\000\000\000\000\000\000\000\000\000\000\000\000\000\000\000\000\000\000\000\000\000\000\000\000\000\000\000\000\000\000\000\000\000\000\000\000\000\000\000\000\000\000\000\000\000\000\000\000\000\000\000\000\000\000\000\000\000\000\000\000\000\000\000\000\000\000\000\000\000\000\000\000\000\000\000\000\000\000\000\000\000\000\000\000\000\000\000\000\000\000\000\000\000\000\000\000\000\000\000\000\000\000\000\000\000\000\000\000\000\000\000\000\000\000\000\000\000\000\000\000\000\000\000\000\000\000\000\000\000\000\000\000\000\000\000\000\000\000\000\000\000\000\000\000\000\000\000\000\000\000\000\000\000\000\000\000\000\000\000\000\000\000\000\000\000\000\000\000\000\000\000\000\000\000\000\000\000\000\000\000\000\000\000\000\000\000\000\000\000\000\000\000\000\000\000\000\000\000\000\000\000\000\000\000\000\000\000\000\000\000\000\000\000\000\000\000\000\000\000\000\000\000\000\000\000\000\000\000\000\000\000\000\000\000\000\000\000\000\000\000\000\000\000\000\000\000\000\000\000\000\000\000\000\000\000\000\000\000\000\000\000\000\000\000\000\000\000\000\000\000\000\000\000\000\000\000\000\000\000\000\000\000\000\000\000\000\000\000\000\000\000\000\000\000\000\000\000\000\000\000\000\000\000\000\000\000\000\000\000\000\000\000\000\000\000\000\000\000\000\000\000\000\000\000\000\000\000\000\000\000\000\000\000\000\000\000\000\000\000\000\000\000\000\000\000\000\000\000\000\000\000\000\000\000\000\000\000\000\000\000\000\000\000\000\000\000\000\000\000\000\000\000\000\000\000\000\000\000\000\000\000\000\000\000\000\000\000\000\000\000\000\000\000\000\000\000\000\000\000\000\000\000\000\000\000\000\000\000\000\000\000\000\000\000\000\000\000\000\000\000\000\000\000\000\000\000\000\000\000\000\000\000\000\000\000\000\000\000\000\000\000\000\000\000\000\000\000\000\000\000\000\000\000\000\000\000\000\000\000\000\000\000\000\000\000\000\000\000\000\000\000\000\000\000\000\000\000\000\000\000\000\000\000\000\000\000\000\000\000\000\000\000\000\000\000\000\000\000\000\000\000\000\000\000\000\000\000\000\000\000\000\000\000\000\000\000\000\000\000\000\000\000\000\000\000\000\000\000\000\000\000\000\000\000\000\000\000\000\000\000\000\000\000\000\000\000\000\000\000\000\000\000\000\000\000\000\000\000\000\000\000\000\000\000\000\000\000\000\000\000\000\000\000\000\000\000\000\000\000\000\000\000\000\000\000\000\000\000\000\000\000\000\000\000\000\000\000\000\000\000\000\000\000\000\000\000\000\000\000\000\000\000\000\000\000\000\000\000\000\000\000\000\000\000\000\000\000\000\000\000\000\000\000\000\000\000\000\000\000\000\000\000\000\000\000\000\000\000\000\000\000\000\000\000\000\000\000\000\000\000\000\000\000\000\000\000\000\000\000\000\000\000\000\000\000\000\000\000\000\000\000\000\000\000\000\000\000\000\000\000\000\000\000\000\000\000\000\000\000\000\000\000\000\000\000\000\000\000\000\000\000\000\000\000\000\000\000\000\000\000\000\000\000\000\000\000\000\000\000\000\000\000\000\000\000\000\000\000\000\000\000\000\000\000\000\000\000\000\000\000\000\000\000\000\000\000\000\000\000\000\000\000\000\000\000\000\000\000\000\000\000\000\000\000\000\000\000\000\000\000\000\000\000\000\000\000\000\000\000\000\000\000\000\000\000\000\000\000\000\000\000\000\000\000\000\000\000\000\000\000\000\000\000\000\000\000\000\000\000\000\000\000\000\000\000\000\000\000\000\000\000\000\000\000\000\000\000\000\000\000\000\000\000\000\000\000\000\000\000\000\000\000\000\000\000\000\000\000\000\000\000\000\000\000\000\000\000\000\000\000\000\000\000\000\000\000\000\000\000\000\000\000\000\000\000\000\000\000\000\000\000\000\000\000\000\000\000\000\000\000\000\000\000\000\000\000\000\000\000\000\000\000\000\000\000\000\000\000\000\000\000\000\000\000\000\000\000\000\000\000\000\000\000\000\000\000\000\000\000\000\000\000\000\000\000\000\000\000\000\000\000\000\000\000\000\000\000\000\000\000\000\000\000\000\000\000\000\000\000\000\000\000\000\000\000\000\000\000\000\000\000\000\000\000\000\000\000\000\000\000\000\000\000\000\000\000\000\000\000\000\000\000\000\000\000\000\000\000\000\000\000\000\000\000\000\000\000\000\000\000\000\000\000\000\000\000\000\000\000\000\000\000\000\000\000\000\000\000\000\000\000\000\000\000\000\000\000\000\000\000\000\000\000\000\000\000\000\000\000\000\000\000\000\000\000\000\000\000\000\000\000\000\000\000\000\000\000\000\000\000\000\000\000\000\000\000\000\000\000\000\000\000\000\000\000\000\000\000\000\000\000\000\000\000\000\000\000\000\000\000\000\000\000\000\000\000\000\000\000\000\000\000\000\000\000\000\000\000\000\000\000\000\000\000\000\000\000\000\000\000\000\000\000\000\000\000\000\000\000\000\000\000\000\000\000\000\000\000\000\000\000\000\000\000\000\000\000\000\000\000\000\000\000\000\000\000\000\000\000\000\000\000\000\000\000\000\000\000\000\000\000\000\000\000\000\000\000\000\000\000\000\000\000\000\000\000\000\000\000\000\000\000\000\000\000\000\000\000\000\000\000\000\000\000\000\000\000\000\000\000\000\000\000\000\000\000\000\000\000\000\000\000\000\000\000\000\000\000\000\000\000\000\000\000\000\000\000\000\000\000\000\000\000\000\000\000\000\000\000\000\000\000\000\000\000\000\000\000\000\000\000\000\000\000\000\000\000\000\000\000\000\000\000\000\000\000\000\000\000\000\000\000\000\000\000\000\000\000\000\000\000\000\000\000\000\000\000\000\000\000\000\000\000\000\000\000\000\000\000\000\000\000\000\000\000\000\000\000\000\000\000\000\000\000\000\000\000\000\000\000\000\000\000\000\000\000\000\000\000\000\000\000\000\000\000\000\000\000\000\000\000\000\000\000\000\000\000\000\000\000\000\000\000\000\000\000\000\000\000\000\000\000\000\000\000\000\000\000\000\000\000\000\000\000\000\000\000\000\000\000\000\000\000\000\000\000\000\000\000\000\000\000\000\000\000\000\000\000\000\000\000\000\000\000\000\000\000\000\000\000\000\000\000\000\000\000\000\000\000\000\000\000\000\000\000\000\000\000\000\000\000\000\000\000\000\000\000\000\000\000\000\000\000\000\000\000\000\000\000\000\000\000\000\000\000\000\000\000\000\000\000\000\000\000\000\000\000\000\000\000\000\000\000\000\000\000\000\000\000\000\000\000\000\000\000\000\000\000\000\000\000\000\000\000\000\000\000\000\000\000\000\000\000\000\000\000\000\000\000\000\000\000\000\000\000\000\000\000\000\000\000\000\000\000\000\000\000\000\000\000\000\000\000\000\000\000\000\000\000\000\000\000\000\000\000\000\000\000\000\000\000\000\000\000\000\000\000\000\000\000\000\000\000\000\000\000\000\000\000\000\000\000\000\000\000\000\000\000\000\000\000\000\000\000\000\000\000\000\000\000\000\000\000\000\000\000\000\000\000\000\000\000\000\000\000\000\000\000\000\000\000\000\000\000\000\000\000\000\000\000\000\000\000\000\000\000\000\000\000\000\000\000\000\000\000\000\000\000\000\000\000\000\000\000\000\000\000\000\000\000\000\000\000\000\000\000\000\000\000\000\000\000\000\000\000\000\000\000\000\000\000\000\000\000\000\000\000\000\000\000\000\000\000\000\000\000\000\000\000\000\000\000\000\000\000\000\000\000\000\000\000\000\000\000\000\000\000\000\000\000\000\000\000\000\000\000\000\000\000\000\000\000\000\000\000\000\000\000\000\000\000\000\000\000\000\000\000\000\000\000\000\000\000\000\000\000\000\000\000\000\000\000\000\000\000\000\000\000\000\000\000\000\000\000\000\000\000\000\000\000\000\000\000\000\000\000\000\000\000\000\000\000\000\000\000\000\000\000\000\000\000\000\000\000\000\000\000\000\000\000\000\000\000\000\000\000\000\000\000\000\000\000\000\000\000\000\000\000\000\000\000\000\000\000\000\000\000\000\000\000\000\000\000\000\000\000\000\000\000\000\000\000\000\000\000\000\000\000\000\000\000\000\000\000\000\000\000\000\000\000\000\000\000\000\000\000\000\000\000\000\000\000\000\000\000\000\000\000\000\000\000\000\000\000\000\000\000\000\000\000\000\000\000\000\000\000\000\000\000\000\000\000\000\000\000\000\000\000\000\000\000\000\000\000\000\000\000\000\000\000\000\000\000\000\000\000\000\000\000\000\000\000\000\000\000\000\000\000\000\000\000\000\000\000\000\000\000\000\000\000\000\000\000\000\000\000\000\000\000\000\000\000\000\000\000\000\000\000\000\000\000\000\000\000\000\000\000\000\000\000\000\000\000\000\000\000\000\000\000\000\000\000\000\000\000\000\000\000\000\000\000\000\000\000\000\000\000\000\000\000\000\000\000\000\000\000\000\000\000\000\000\000\000\000\000\000\000\000\000\000\000\000\000\000\000\000\000\000\000\000\000\000\000\000\000\000\000\000\000\000\000\000\000\000\000\000\000\000\000\000\000\000\000\000\000\000\000\000\000\000\000\000\000\000\000\000\000\000\000\000\000\000\000\000\000\000\000\000\000\000\000\000\000\000\000\000\000\000\000\000\000\000\000\000\000\000\000\000\000\000\000\000\000\000\000\000\000\000\000\000\000\000\000\000\000\000\000\000\000\000\000\000\000\000\000\000\000\000\000\000\000\000\000\000\000\000\000\000\000\000\000\000\000\000\000\000\000\000\000\000\000\000\000\000\000\000\000\000\000\000\000\000\000\000\000\000\000\000\000\000\000\000\000\000\000\000\000\000\000\000\000\000\000\000\000\000\000\000\000\000\000\000\000\000\000\000\000\000\000\000\000\000\000\000\000\000\000\000\000\000\000\000\000\000\000\000\000\000\000\000\000\000\000\000\000\000\000\000\000\000\000\000\000\000\000\000\000\000\000\000\000\000\000\000\000\000\000\000\000\000\000\000\000\000\000\000\000\000\000\000\000\000\000\000\000\000\000\000\000\000\000\000\000\000\000\000\000\000\000\000\000\000\000\000\000\000\000\000\000\000\000\000\000\000\000\000\000\000\000\000\000\000\000\000\000\000\000\000\000\000\000\000\000\000\000\000\000\000\000\000\000\000\000\000\000\000\000\000\000\000\000\000\000\000\000\000\000\000\000\000\000\000\000\000\000\000\000\000\000\000\000\000\000\000\000\000\000\000\000\000\000\000\000\000\000\000\000\000\000\000\000\000\000\000\000\000\000\000\000\000\000\000\000\000\000\000\000\000\000\000\000\006\000\000\000\000\000\000\000\250\017\000\000\000\000\000\000\013\000\000\000\000\000\000\000\030\000\000\000\000\000\000\000\005\000\000\000\000\000\000\000\224\021\000\000\000\000\000\000\n\000\000\000\000\000\000\000O\002\000\000\000\000\000\000\365\376\377o\000\000\000\000\310\020\000\000\000\000\000\000\004\000\000\000\000\000\000\000,\021\000\000\000\000\000\000\000\000\000\000\000\000\000\000\000\000\000\000\000\000\000\000\001\021\001%%\023\005\003%r\027\020\027\033%\211|%\021\033\022\006s\027t\027\000\000\0024\000\003%I\023:\013;\005\002\030n%\000\000\003&\000I\023\000\000\004\023\0016\013\003%\013\013:\013;\005\000\000\005/\000I\023\003%\000\000\006\r\000\003%I\023:\013;\005?\031<\031\000\000\007.\001n%\003%:\013;\005I\023<\031?\031\000\000\b\005\000I\0234\031\000\000\t\005\000I\023\000\000\n\026\000I\023\003%:\013;\005\000\000\013\026\000I\023\003%:\013;\013\000\000\f$\000\003%>\013\013\013\000\000\r\017\000I\023\000\000\016\020\000I\023\000\000\017\r\000\003%I\023:\013;\0058\013\000\000\020.\001\003%:\013;\005<\031?\031\000\000\0214\000G\023\002\030n%\000\000\0229\001\003%\000\000\023\004\001I\023\003%\013\013:\013;\013\000\000\024(\000\003%\034\017\000\000\025\b\000:\013;\013\030\023\000\000\026.\001n%\003%:\013;\013I\023<\031?\031\000\000\027\b\000:\013;\005\030\023\000\000\0304\000\003&I\023:\013;\013<\031n&\000\000\031.\001n&\003%:\013;\013I\023<\031?\031\000\000\0329\000\003&\000\000\0339\001\003&\000\000\034\002\000\003&<\031\000\000\035.\001n&\003&:\013;\013<\031?\031\207\001\031\000\000\036\026\000I\023\003&:\013;\005\000\000\037.\001\003%:\013;\005I\023<\031?\031\000\000 .\001\003%:\013;\013I\023<\031?\031\000\000!\023\000<\031\000\000\"\023\0016\013\013\013:\013;\013\000\000#\r\000\003%I\023:\013;\0138\013\000\000$.\000\003%:\013;\005<\031?\031\207\001\031\000\000%\025\000\000\000&\017\000\000\000'&\000\000\000(\025\001I\023\000\000).\001\003%:\013;\005<\031?\031\207\001\031\000\000*7\000I\023\000\000+.\000\003%:\013;\005I\023<\031?\031\000\000,:\000:\013;\013\030\023\000\000-.\001n&\003%:\013;\013I\023<\031\000\000..\001n&\003&:\013;\013I\023<\031\000\000/$\000\003&>\013\013\013\000\0000.\001n&\003%:\013;\005I\023<\031\000\0001.\001n&\003&:\013;\005I\023<\031\000\0002\026\000I\023\003&:\013;\013\000\0003\r\000\003&I\023:\013;\0138\013\000\0004\027\0016\013\013\013:\013;\013\000\0005\001\001I\023\000\0006!\000I\0237\013\000\0007$\000\003&\013\013>\013\000\0008.\001\003&:\013;\005I\023<\031?\031\000\0009\023\0016\013\003&\013\013:\013;\013\000\000:\023\000\003&<\031\000\000;\026\000\003&:\013;\013\000\000<\030\000\000\000=.\001n&\003&:\013;\005I\023<\031?\031\000\000>.\000\003&:\013;\005I\023<\031?\031\000\000?\026\000I\023\003&\000\000@.\001\003&:\013;\013I\023<\031?\031\000\000A.\000\003&:\013;\013I\023<\031?\031\000\000B.\001\003&:\013;\005<\031?\031\000\000C.\001G\023 !\001d\023\000\000D\005\000\003&I\0234\031\000\000E\005\000\003%:\013;\005I\023\000\000F.\001\021\033\022\006z\031n&\003&:\013;\013?\031\000\000G\035\0011\023U#X\013Y\013W\013\000\000H\035\0001\023U#X\013Y\005W\013\000\000I\035\0011\023\021\033\022\006X\013Y\013W\013\000\000J\035\0001\023\021\033\022\006X\013Y\005W\013\000\000\000\034;\000\000\005\000\001\b\000\000\000\000\001\000\032\000\001\b\000\000\000\000\000\000\000\002\003\000\354\r\000\000\b\000\000\000\f\000\000\000\002\0043\000\000\000\001y\001\000\037\0038\000\000\000\004\005\036\001\001(\001\005\001\001\000\000\013\006\f<\001\000\000\0018\001\004\005\022\001\001+\001\007\r\016\001,\001{\000\000\000\bA\001\000\000\000\007\020\021\001-\001{\000\000\000\bF\001\000\000\tK\001\000\000\000\000\n\036\001\000\000\017\001)\001\006\023U\001\000\000\0019\001\004\005\026\001\001/\001\007\024\016\0010\001{\000\000\000\bZ\001\000\000\000\007\025\021\0011\001{\000\000\000\b_\001\000\000\tK\001\000\000\000\000\006\027d\001\000\000\001:\001\004\005\032\001\0013\001\007\030\016\0014\001{\000\000\000\bi\001\000\000\000\007\031\021\0015\001{\000\000\000\bn\001\000\000\tK\001\000\000\000\000\007\033\034\001<\001s\001\000\000\b\301\001\000\000\000\000\004\005\n\001\001\025\001\007\005\006\001\027\001\036\001\000\000\b2\001\000\000\t\036\001\000\000\000\000\013&\001\000\000\t\003\032\013.\001\000\000\b\002*\f\007\007\004\r7\001\000\000\003\001\001\000\000\003N\000\000\000\r<\001\000\000\rN\000\000\000\016P\001\000\000\003{\000\000\000\003\215\000\000\000\rU\001\000\000\r\215\000\000\000\003\303\000\000\000\rd\001\000\000\r\303\000\000\000\n|\001\000\000\035\004\255\003\004\005\035\f\004\246\003\017\f\036\001\000\000\004\247\003\000\017\023\036\001\000\000\004\250\003\004\017\027\036\001\000\000\004\251\003\b\020\035\004\253\003\b\274\001\000\000\t\036\001\000\000\t\036\001\000\000\t\036\001\000\000\000\000\r|\001\000\000\r3\000\000\000\021E\000\000\000\017\003@\024\000\000\000\000\000\000\237\224\b\020\000\341 \002!\347\001\000\000\001w\001\000,\003\354\001\000\000\004\005+\001\001(\001\005\265\002\000\000\013\006\f\334\002\000\000\0018\001\004\005\022\001\001+\001\007$\016\001,\001/\002\000\000\b\341\002\000\000\000\007%\021\001-\001/\002\000\000\b\346\002\000\000\t\353\002\000\000\000\000\n\036\001\000\000\017\001)\001\006\023\365\002\000\000\0019\001\004\005\026\001\001/\001\007&\016\0010\001/\002\000\000\b\372\002\000\000\000\007'\021\0011\001/\002\000\000\b\377\002\000\000\t\353\002\000\000\000\000\006\027\004\003\000\000\001:\001\004\005\032\001\0013\001\007(\016\0014\001/\002\000\000\b\t\003\000\000\000\007)\021\0015\001/\002\000\000\b\016\003\000\000\t\353\002\000\000\000\000\007*\034\001<\001s\001\000\000\b\023\003\000\000\000\000\004\005#\001\001\005\001\007\"\006\001\007\001\036\001\000\000\b\322\002\000\000\t\036\001\000\000\000\000\r\327\002\000\000\003\265\002\000\000\003\002\002\000\000\r\334\002\000\000\r\002\002\000\000\016\360\002\000\000\003/\002\000\000\003A\002\000\000\r\365\002\000\000\rA\002\000\000\003w\002\000\000\r\004\003\000\000\rw\002\000\000\r\347\001\000\000\021\371\001\000\000\017\003A\024\000\000\000\000\000\000\237\224\b\020\000\341-\002.9\003\000\000\001v\001\0009\003>\003\000\000\004\0058\001\001(\001\005\007\004\000\000\013\006\f.\004\000\000\0018\001\004\005\022\001\001+\001\0071\016\001,\001\201\003\000\000\b3\004\000\000\000\0072\021\001-\001\201\003\000\000\b8\004\000\000\t=\004\000\000\000\000\n\036\001\000\000\017\001)\001\006\023G\004\000\000\0019\001\004\005\026\001\001/\001\0073\016\0010\001\201\003\000\000\bL\004\000\000\000\0074\021\0011\001\201\003\000\000\bQ\004\000\000\t=\004\000\000\000\000\006\027V\004\000\000\001:\001\004\005\032\001\0013\001\0075\016\0014\001\201\003\000\000\b[\004\000\000\000\0076\021\0015\001\201\003\000\000\b`\004\000\000\t=\004\000\000\000\000\0077\034\001<\001s\001\000\000\be\004\000\000\000\000\004\0050\001\001\t\001\007/\006\001\013\001\036\001\000\000\b$\004\000\000\t\036\001\000\000\000\000\r)\004\000\000\003\007\004\000\000\003T\003\000\000\r.\004\000\000\rT\003\000\000\016B\004\000\000\003\201\003\000\000\003\223\003\000\000\rG\004\000\000\r\223\003\000\000\003\311\003\000\000\rV\004\000\000\r\311\003\000\000\r9\003\000\000\021K\003\000\000\017\003B\024\000\000\000\000\000\000\237\224\b\020\000\341:\021\204\000\000\000\017\003C\024\000\000\000\000\000\000\237\224\b\020\000\341;\0218\002\000\000\017\003D\024\000\000\000\000\000\000\237\224\b\020\000\341<\021\212\003\000\000\017\003E\024\000\000\000\000\000\000\237\224\b\020\000\341=\021\272\000\000\000\017\003F\024\000\000\000\000\000\000\237\224\b\020\000\341>\021n\002\000\000\017\003G\024\000\000\000\000\000\000\237\224\b\020\000\341?\021\300\003\000\000\017\003H\024\000\000\000\000\000\000\237\224\b\020\000\341@\022A\023.\001\000\000E\004\0051\024B\000\024C\001\024D\002\000\025\013\310X\037\000\000\025\013\316x\037\000\000\025\013\322\203\037\000\000\025\013\330\222\037\000\000\025\013\343\246\037\000\000\025\013\344\265\037\000\000\025\013\345\315\037\000\000\025\013\347\351\037\000\000\025\013\350\374\037\000\000\026\377\337\013\325X\037\000\000\t\b\031\000\000\t\b\031\000\000\000\025\027\373W1\000\000\027\027\004\001l1\000\000\027\027\005\001\2061\000\000\025!,\206\021\000\000\025!-\217\021\000\000\025'\257\2157\000\000\025'\260\2507\000\000\025'\261\3047\000\000\025'\262\3337\000\000\025'\263\3727\000\000\030\265\002\027:\000\000\0055\266\002\000\022F\025\0074V\024\000\000\025\tSi\024\000\000\025\tf{\024\000\000\025\ty\211\024\000\000\025\t\214\227\024\000\000\025\t\241\252\024\000\000\025\t\264\270\024\000\000\025\t\307\306\024\000\000\025\t\332\324\024\000\000\025\t\355\342\024\000\000\027\t\000\001\360\024\000\000\027\t\023\001\376\024\000\000\027\t(\001\021\025\000\000\027\t;\001)\025\000\000\027\tN\001<\025\000\000\027\ta\001J\025\000\000\027\tt\001X\025\000\000\027\t\200\001p\025\000\000\027\t\245\001\203\025\000\000\027\t\270\001\221\025\000\000\027\t\313\001\237\025\000\000\027\t\336\001\255\025\000\000\027\t\361\001\273\025\000\000\027\t)\004\311\025\000\000\027\t*\004\321\025\000\000\027\t-\004\335\025\000\000\027\t.\004\353\025\000\000\027\t/\004\371\025\000\000\027\t1\004\013\026\000\000\027\t2\004\031\026\000\000\027\t3\004'\026\000\000\027\t5\0045\026\000\000\027\t6\004C\026\000\000\027\t7\004Q\026\000\000\027\t9\004_\026\000\000\027\t:\004m\026\000\000\027\t;\004{\026\000\000\027\t=\004\211\026\000\000\027\t>\004\234\026\000\000\027\t?\004\257\026\000\000\027\tA\004\302\026\000\000\027\tB\004\320\026\000\000\027\tC\004\336\026\000\000\027\tE\004\354\026\000\000\027\tF\004\372\026\000\000\027\tG\004\b\027\000\000\027\tI\004\026\027\000\000\027\tJ\004$\027\000\000\027\tK\0042\027\000\000\027\tM\004@\027\000\000\027\tN\004N\027\000\000\027\tO\004\\\027\000\000\027\tQ\004j\027\000\000\027\tR\004~\027\000\000\027\tS\004\222\027\000\000\027\tU\004\246\027\000\000\027\tV\004\277\027\000\000\027\tW\004\330\027\000\000\027\tY\004\361\027\000\000\027\tZ\004\005\030\000\000\027\t[\004\031\030\000\000\027\t]\004-\030\000\000\027\t^\004A\030\000\000\027\t_\004U\030\000\000\027\ta\004i\030\000\000\027\tb\004|\030\000\000\027\tc\004\217\030\000\000\027\te\004\242\030\000\000\027\tf\004\261\030\000\000\027\tg\004\300\030\000\000\027\ti\004\317\030\000\000\027\tj\004\335\030\000\000\027\tk\004\353\030\000\000\027\tn\004\371\030\000\000\027\to\004\f\031\000\000\027\tp\004\033\031\000\000\027\tr\004*\031\000\000\027\ts\0049\031\000\000\027\tt\004H\031\000\000\027\tw\004W\031\000\000\027\tx\004e\031\000\000\027\ty\004s\031\000\000\027\t{\004\201\031\000\000\027\t|\004\217\031\000\000\027\t}\004\235\031\000\000\027\t\177\004\253\031\000\000\027\t\200\004\271\031\000\000\027\t\201\004\307\031\000\000\027\t\203\004\325\031\000\000\027\t\204\004\350\031\000\000\027\t\205\004\367\031\000\000\027\t\207\004\006\032\000\000\027\t\210\004\025\032\000\000\027\t\211\004$\032\000\000\027\t\213\0043\032\000\000\027\t\214\004O\032\000\000\027\t\215\004]\032\000\000\027\t\217\004k\032\000\000\027\t\220\004z\032\000\000\027\t\221\004\211\032\000\000\027\t\223\004\230\032\000\000\027\t\224\004\254\032\000\000\027\t\225\004\300\032\000\000\027\t\227\004\324\032\000\000\027\t\230\004\350\032\000\000\027\t\231\004\374\032\000\000\027\t\233\004\020\033\000\000\027\t\234\004$\033\000\000\027\t\235\0048\033\000\000\027\t\237\004L\033\000\000\027\t\240\004e\033\000\000\027\t\241\004~\033\000\000\027\t\243\004\227\033\000\000\027\t\244\004\246\033\000\000\027\t\245\004\265\033\000\000\027\t\247\004\304\033\000\000\027\t\250\004\323\033\000\000\027\t\251\004\342\033\000\000\027\t\253\004\361\033\000\000\027\t\254\004\005\034\000\000\027\t\255\004\031\034\000\000\027\t\257\004-\034\000\000\027\t\260\004A\034\000\000\027\t\261\004U\034\000\000\027\t\263\004i\034\000\000\027\t\264\004w\034\000\000\027\t\265\004\205\034\000\000\027\t\267\004\223\034\000\000\027\t\270\004\242\034\000\000\027\t\271\004\261\034\000\000\025\013\177\300\034\000\000\025\013\200\311\034\000\000\025\013\202\351\034\000\000\025\013\206\356\034\000\000\025\013\211\003\035\000\000\025\013\214\022\035\000\000\025\013\215 \035\000\000\025\013\216/\035\000\000\025\013\217>\035\000\000\025\013\220\221\035\000\000\025\013\221\245\035\000\000\025\013\222\271\035\000\000\025\013\223\304\035\000\000\025\013\224\317\035\000\000\025\013\225\343\035\000\000\025\013\226\362\035\000\000\025\013\227\006\036\000\000\025\013\231\025\036\000\000\025\013\232)\036\000\000\025\013\233U\036\000\000\025\013\235n\036\000\000\025\013\240\210\036\000\000\025\013\243\223\036\000\000\025\013\244\234\036\000\000\025\013\245\260\036\000\000\025\013\246\273\036\000\000\025\013\247\330\036\000\000\025\013\250\360\036\000\000\025\013\251\b\037\000\000\025\013\253\027\037\000\000\025\013\254D\037\000\000\025\013\360X\037\000\000\025\013\362x\037\000\000\025\013\364\203\037\000\000\025\013\365X\005\000\000\025\013\366\222\037\000\000\025\013\370\246\037\000\000\025\013\371\351\037\000\000\025\013\372\265\037\000\000\025\013\373\315\037\000\000\025\013\374\374\037\000\000\031\000\001G\007O\007\026\000\000\t\007\026\000\000\000\032\002\001\033\003\001\034\004\001\025\021I\017\013\000\000\000\025\0219\375\n\000\000\035\005\001\006\001\021E\t\375\n\000\000\000\025\022\310\372 \000\000\025\022\311\n!\000\000\025\022\312\032!\000\000\025\022\313*!\000\000\025\022\314:!\000\000\025\022\315J!\000\000\025\022\316Z!\000\000\025\022\317o!\000\000\025\022\320\177!\000\000\025\022\321\217!\000\000\025\022\322\237!\000\000\025\022\323\264!\000\000\025\022\324\304!\000\000\025\022\325\324!\000\000\025\022\326\344!\000\000\025\022\327\364!\000\000\025\022\330\004\"\000\000\025\022\331\024\"\000\000\025\022\332$\"\000\000\025\022\3334\"\000\000\025\022\334I\"\000\000\025\022\335Y\"\000\000\025\022\336s\"\000\000\025\022\337\210\"\000\000\025\022\340\235\"\000\000\025\022\341\262\"\000\000\025\022\342\303\"\000\000\025\022\343\330\"\000\000\025\022\344\355\"\000\000\025\022\345\375\"\000\000\025\022\346\023#\000\000\025\022\347)#\000\000\025\022\350?#\000\000\025\022\351P#\000\000\025\022\352f#\000\000\025\022\353|#\000\000\025\022\354\222#\000\000\025\022\355\243#\000\000\025\022\356\264#\000\000\025\022\357\312#\000\000\025\022\360\332#\000\000\025\022\361\357#\000\000\025\022\362\377#\000\000\025\022\363\017$\000\000\025\022\364\037$\000\000\025\022\365/$\000\000\025\022\366?$\000\000\025\022\367O$\000\000\025\022\370_$\000\000\025\022\371o$\000\000\025\022\372\177$\000\000\025\022\373\217$\000\000\025\022\374\237$\000\000\025\022\375\271$\000\000\025\022\376\311$\000\000\025\022\377\331$\000\000\027\022\000\001\351$\000\000\027\022\001\001\376$\000\000\027\022\002\001\023%\000\000\027\022\003\001(%\000\000\027\022\004\001B%\000\000\027\022\005\001R%\000\000\027\022\006\001b%\000\000\027\022\007\001w%\000\000\027\022\b\001\214%\000\000\027\022\t\001\235%\000\000\027\022\n\001\255%\000\000\027\022\013\001\275%\000\000\027\022\f\001\315%\000\000\027\022\r\001\335%\000\000\027\022\016\001\355%\000\000\027\022\017\001\375%\000\000\027\024\331\002\r&\000\000\027\024\332\002\036&\000\000\027\024\333\002.&\000\000\027\024\334\002?&\000\000\027\024\335\002O&\000\000\027\024\336\002e&\000\000\027\024\337\002v&\000\000\027\024\340\002\206&\000\000\027\024\341\002\226&\000\000\027\024\342\002\247&\000\000\027\024\343\002\274&\000\000\027\024\344\002\315&\000\000\027\024\345\002\336&\000\000\027\024\346\002\356&\000\000\027\024\347\002\376&\000\000\027\024\350\002\016'\000\000\027\024\351\002\037'\000\000\027\024\352\0020'\000\000\027\024\353\002B'\000\000\027\024\354\002X'\000\000\027\024\355\002j'\000\000\027\024\356\002\205'\000\000\027\024\357\002\233'\000\000\027\024\360\002\261'\000\000\027\024\361\002\310'\000\000\027\024\362\002\337'\000\000\027\024\363\002\365'\000\000\027\024\364\002\006(\000\000\027\024\365\002\035(\000\000\027\024\366\002.(\000\000\027\024\367\002?(\000\000\027\024\370\002P(\000\000\027\024\371\002b(\000\000\027\024\372\002s(\000\000\027\024\373\002\204(\000\000\027\024\374\002\225(\000\000\027\024\375\002\247(\000\000\027\024\376\002\270(\000\000\027\024\377\002\311(\000\000\027\024\000\003\340(\000\000\027\024\001\003\361(\000\000\027\024\003\003\007)\000\000\027\024\004\003\036)\000\000\027\024\005\0034)\000\000\027\024\006\003O)\000\000\027\024\007\003`)\000\000\027\024\b\003q)\000\000\027\024\t\003\207)\000\000\027\024\n\003\235)\000\000\027\024\013\003\257)\000\000\027\024\f\003\301)\000\000\027\024\r\003\323)\000\000\027\024\016\003\345)\000\000\027\024\017\003\367)\000\000\027\024\020\003\b*\000\000\025\027@\031*\000\000\025\027\215p*\000\000\025\027\217y*\000\000\025\027\220\211*\000\000\025\027\221,,\000\000\025\027\222K,\000\000\025\027\223`,\000\000\025\027\224u,\000\000\025\027\225\212,\000\000\025\027\226\240,\000\000\025\027\227\270,\000\000\025\027\230\310,\000\000\025\027\231\322,\000\000\025\027\232\366,\000\000\025\027\233\025-\000\000\025\027\234/-\000\000\025\027\235X-\000\000\025\027\236m-\000\000\025\027\240}-\000\000\025\027\242\230-\000\000\025\027\243\260-\000\000\025\027\244\305-\000\000\025\027\246\357-\000\000\025\027\251\013.\000\000\025\027\254*.\000\000\025\027\256F.\000\000\025\027\260[.\000\000\025\027\262r.\000\000\025\027\263\214.\000\000\025\027\264\240.\000\000\025\027\265\264.\000\000\025\027\266\310.\000\000\025\027\267\334.\000\000\025\027\270\360.\000\000\025\027\271!/\000\000\025\027\2720/\000\000\025\027\273I/\000\000\025\027\274b/\000\000\025\027\275{/\000\000\025\027\276\244/\000\000\025\027\277\270/\000\000\025\027\301\327/\000\000\025\027\303\354/\000\000\025\027\304\0050\000\000\025\027\305\0370\000\000\025\027\30690\000\000\025\027\307R0\000\000\025\027\310b0\000\000\025\027\311|0\000\000\025\027\312\2260\000\000\025\027\313\2600\000\000\025\027\314\3120\000\000\025\027\315\3330\000\000\025\027\316\3560\000\000\025\027\317\0021\000\000\025\027\320\0261\000\000\025\027\321*1\000\000\025\027\322>1\000\000\027\027\013\001W1\000\000\027\027\f\001l1\000\000\027\027\r\001\2061\000\000\027\027\033\001\327/\000\000\027\027\036\001\357-\000\000\027\027!\001*.\000\000\027\027$\001[.\000\000\027\027(\001W1\000\000\027\027)\001l1\000\000\027\027*\001\2061\000\000\025\036/\2401\000\000\025\0360\2621\000\000\025\0361\3111\000\000\025\0362\3331\000\000\025\0364\3551\000\000\025\0365\3661\000\000\025\0366\3771\000\000\025\0367\b2\000\000\025\0369\0212\000\000\025\036:#2\000\000\025\036;52\000\000\025\036<G2\000\000\025\036>Y2\000\000\025\036?k2\000\000\025\036At2\000\000\025\036B\2132\000\000\025\036C\036\001\000\000\025\036D\2352\000\000\025\036F\2572\000\000\025\036G\2702\000\000\025\036H\3012\000\000\025\036I\3122\000\000\025\036K\3232\000\000\025\036L\3452\000\000\025\036M\3672\000\000\025\036N\t3\000\000\025\036P\0333\000\000\025\036Q-3\000\000\no\035\000\000\334 \002\001\036\344\031\000\000J\002 \003\001\025\"563\000\000\025\"693\000\000\025\"7M3\000\000\025%@[3\000\000\025%Aj3\000\000\025%By3\000\000\025%C\2103\000\000\025%D\2273\000\000\025%E\2463\000\000\025%F\2653\000\000\025%G\3043\000\000\025%H\3233\000\000\025%I\3423\000\000\025%J\3613\000\000\025%K\0004\000\000\025%L\0174\000\000\025%W\0364\000\000\025'b-4\000\000\025'c64\000\000\025'eK4\000\000\025'f\\4\000\000\025'gk4\000\000\025'h{4\000\000\025'i\2134\000\000\025'j\2324\000\000\025'k\2524\000\000\025'l\3164\000\000\025'm\3504\000\000\025'n\3744\000\000\025'o\0225\000\000\025'p'5\000\000\025'q<5\000\000\025'r`5\000\000\025'sy5\000\000\025't\2215\000\000\025'u\2535\000\000\025'v\3125\000\000\025'w\3325\000\000\025'x\3765\000\000\025'y\0166\000\000\025'|\0276\000\000\025'~'6\000\000\025'\17736\000\000\025'\200D6\000\000\025'\201Y6\000\000\025'\202h6\000\000\025'\203x6\000\000\025'\204\2076\000\000\025'\205\2336\000\000\025'\206\2476\000\000\025'\207\2726\000\000\025'\210\3136\000\000\025'\211\3526\000\000\025'\212\0007\000\000\025'\213\0307\000\000\025'\215!7\000\000\025'\21707\000\000\025'\220E7\000\000\025'\221_7\000\000\025'\222s7\000\000\025'\271\2157\000\000\025'\272\2507\000\000\025'\273\3047\000\000\025'\274\3337\000\000\025'\275\3727\000\000\025,R\0268\000\000\025,S)8\000\000\025,Tp*\000\000\025,V28\000\000\025,WA8\000\000\025,YP8\000\000\025,[_8\000\000\025,\\n8\000\000\025,]\2028\000\000\025,^\2218\000\000\025,_\2408\000\000\025,`\2578\000\000\025,a\2768\000\000\025,b\3158\000\000\025,c\3348\000\000\025,d\3538\000\000\025,e\3728\000\000\025,f\0169\000\000\025,g\0359\000\000\025,h,9\000\000\025,i;9\000\000\025/<J9\000\000\025/=\\9\000\000\025/>\036/\000\000\025/@n9\000\000\025/Aw9\000\000\025/B\2139\000\000\025/C\2379\000\000\025/D\2639\000\000\025/E\3029\000\000\025/F\3339\000\000\025/G\3529\000\000\025/H\3719\000\000\0252V\006\005\000\000\0252W\264\005\000\000\000\037G\006H\003e\024\000\000\te\024\000\000\000\fH\005\004 I\b5w\024\000\000\tw\024\000\000\000\fJ\004\b K\b7w\024\000\000\tw\024\000\000\000 L\b9w\024\000\000\tw\024\000\000\000 M\b;w\024\000\000\tw\024\000\000\tw\024\000\000\000 N\b\237w\024\000\000\tw\024\000\000\000 O\b>w\024\000\000\tw\024\000\000\000 P\bGw\024\000\000\tw\024\000\000\000 Q\b_w\024\000\000\tw\024\000\000\000 R\b\242w\024\000\000\tw\024\000\000\000 S\b\245w\024\000\000\tw\024\000\000\000 T\b\250w\024\000\000\tw\024\000\000\tw\024\000\000\000 U\bbw\024\000\000\tw\024\000\000\t$\025\000\000\000\re\024\000\000 V\bew\024\000\000\tw\024\000\000\te\024\000\000\000 W\bhw\024\000\000\tw\024\000\000\000 X\bkw\024\000\000\tw\024\000\000\000 Y\bnw\024\000\000\tw\024\000\000\tk\025\000\000\000\rw\024\000\000 Z\b\214w\024\000\000\tw\024\000\000\tw\024\000\000\000 [\b@w\024\000\000\tw\024\000\000\000 \\\bIw\024\000\000\tw\024\000\000\000 ]\b\217w\024\000\000\tw\024\000\000\000 ^\bBw\024\000\000\tw\024\000\000\000 _\bKw\024\000\000\tw\024\000\000\000\013w\024\000\000`\n\226\013\331\025\000\000b\n\225\fa\004\004 c\bUw\024\000\000\tw\024\000\000\000 d\bU\331\025\000\000\t\331\025\000\000\000 e\bU\007\026\000\000\t\007\026\000\000\000\ff\004\b g\bWw\024\000\000\tw\024\000\000\000 h\bW\331\025\000\000\t\331\025\000\000\000 i\bW\007\026\000\000\t\007\026\000\000\000 j\bYw\024\000\000\tw\024\000\000\000 k\bY\331\025\000\000\t\331\025\000\000\000 l\bY\007\026\000\000\t\007\026\000\000\000 m\b\230w\024\000\000\tw\024\000\000\000 n\b\230\331\025\000\000\t\331\025\000\000\000 o\b\230\007\026\000\000\t\007\026\000\000\000 p\b\304w\024\000\000\tw\024\000\000\tw\024\000\000\000 q\b\304\331\025\000\000\t\331\025\000\000\t\331\025\000\000\000 r\b\304\007\026\000\000\t\007\026\000\000\t\007\026\000\000\000 s\b\344w\024\000\000\tw\024\000\000\000 t\b\344\331\025\000\000\t\331\025\000\000\000 u\b\344\007\026\000\000\t\007\026\000\000\000 v\b\345w\024\000\000\tw\024\000\000\000 w\b\345\331\025\000\000\t\331\025\000\000\000 x\b\345\007\026\000\000\t\007\026\000\000\000 y\b\202w\024\000\000\tw\024\000\000\000 z\b\202\331\025\000\000\t\331\025\000\000\000 {\b\202\007\026\000\000\t\007\026\000\000\000 |\bww\024\000\000\tw\024\000\000\000 }\bw\331\025\000\000\t\331\025\000\000\000 ~\bw\007\026\000\000\t\007\026\000\000\000\037\177\bF\001w\024\000\000\tw\024\000\000\tw\024\000\000\000\037\200\bF\001\331\025\000\000\t\331\025\000\000\t\331\025\000\000\000\037\201\bF\001\007\026\000\000\t\007\026\000\000\t\007\026\000\000\000\037\202\bO\001w\024\000\000\tw\024\000\000\tw\024\000\000\tw\024\000\000\000\037\203\bO\001\331\025\000\000\t\331\025\000\000\t\331\025\000\000\t\331\025\000\000\000\037\204\bO\001\007\026\000\000\t\007\026\000\000\t\007\026\000\000\t\007\026\000\000\000\037\205\bI\001w\024\000\000\tw\024\000\000\tw\024\000\000\000\037\206\bI\001\331\025\000\000\t\331\025\000\000\t\331\025\000\000\000\037\207\bI\001\007\026\000\000\t\007\026\000\000\t\007\026\000\000\000\037\210\bL\001w\024\000\000\tw\024\000\000\tw\024\000\000\000\037\211\bL\001\331\025\000\000\t\331\025\000\000\t\331\025\000\000\000\037\212\bL\001\007\026\000\000\t\007\026\000\000\t\007\026\000\000\000 \213\b\223w\024\000\000\tw\024\000\000\tw\024\000\000\000 \214\b\223\331\025\000\000\t\331\025\000\000\t\331\025\000\000\000 \215\b\223\007\026\000\000\t\007\026\000\000\t\007\026\000\000\000\037\216\b\030\001e\024\000\000\tw\024\000\000\000\037\217\b\030\001e\024\000\000\t\331\025\000\000\000\037\220\b\030\001e\024\000\000\t\007\026\000\000\000 \221\b\346w\024\000\000\tw\024\000\000\000 \222\b\346\331\025\000\000\t\331\025\000\000\000 \223\b\346\007\026\000\000\t\007\026\000\000\000\037\224\b<\001\b\031\000\000\tw\024\000\000\000\f\225\005\b\037\226\b<\001\b\031\000\000\t\331\025\000\000\000\037\227\b<\001\b\031\000\000\t\007\026\000\000\000\037\230\bB\001\b\031\000\000\tw\024\000\000\000\037\231\bB\001\b\031\000\000\t\331\025\000\000\000\037\232\bB\001\b\031\000\000\t\007\026\000\000\000 \233\bzw\024\000\000\tw\024\000\000\000 \234\bz\331\025\000\000\t\331\025\000\000\000 \235\bz\007\026\000\000\t\007\026\000\000\000 \236\b\205w\024\000\000\tw\024\000\000\000 \237\b\205\331\025\000\000\t\331\025\000\000\000 \240\b\205\007\026\000\000\t\007\026\000\000\000 \241\b}w\024\000\000\tw\024\000\000\000 \242\b}\331\025\000\000\t\331\025\000\000\000 \243\b}\007\026\000\000\t\007\026\000\000\000\037\244\b:\001\344\031\000\000\tw\024\000\000\000\f\245\005\b\037\246\b:\001\344\031\000\000\t\331\025\000\000\000\037\247\b:\001\344\031\000\000\t\007\026\000\000\000\037\250\b@\001\344\031\000\000\tw\024\000\000\000\037\251\b@\001\344\031\000\000\t\331\025\000\000\000\037\252\b@\001\344\031\000\000\t\007\026\000\000\000 \253\b\311w\024\000\000\tA\032\000\000\000\rF\032\000\000\003K\032\000\000\f\254\006\001 \255\b\311\331\025\000\000\tA\032\000\000\000 \256\b\311\007\026\000\000\tA\032\000\000\000\037\257\b&\001w\024\000\000\tw\024\000\000\000\037\260\b&\001\331\025\000\000\t\331\025\000\000\000\037\261\b&\001\007\026\000\000\t\007\026\000\000\000\037\262\b\003\001w\024\000\000\tw\024\000\000\tw\024\000\000\000\037\263\b\003\001\331\025\000\000\t\331\025\000\000\t\331\025\000\000\000\037\264\b\003\001\007\026\000\000\t\007\026\000\000\t\007\026\000\000\000\037\265\b\005\001w\024\000\000\tw\024\000\000\t\007\026\000\000\000\037\266\b\005\001\331\025\000\000\t\331\025\000\000\t\007\026\000\000\000\037\267\b\005\001\007\026\000\000\t\007\026\000\000\t\007\026\000\000\000\037\270\b\020\001w\024\000\000\tw\024\000\000\tw\024\000\000\000\037\271\b\020\001\331\025\000\000\t\331\025\000\000\t\331\025\000\000\000\037\272\b\020\001\007\026\000\000\t\007\026\000\000\t\007\026\000\000\000\037\273\b3\001w\024\000\000\tw\024\000\000\tw\024\000\000\t$\025\000\000\000\037\274\b3\001\331\025\000\000\t\331\025\000\000\t\331\025\000\000\t$\025\000\000\000\037\275\b3\001\007\026\000\000\t\007\026\000\000\t\007\026\000\000\t$\025\000\000\000\037\276\b\000\001w\024\000\000\tw\024\000\000\000\037\277\b\000\001\331\025\000\000\t\331\025\000\000\000\037\300\b\000\001\007\026\000\000\t\007\026\000\000\000\037\301\b*\001w\024\000\000\tw\024\000\000\000\037\302\b*\001\331\025\000\000\t\331\025\000\000\000\037\303\b*\001\007\026\000\000\t\007\026\000\000\000\037\304\b\"\001w\024\000\000\tw\024\000\000\t\344\031\000\000\000\037\305\b\"\001\331\025\000\000\t\331\025\000\000\t\344\031\000\000\000\037\306\b\"\001\007\026\000\000\t\007\026\000\000\t\344\031\000\000\000\037\307\b\024\001w\024\000\000\tw\024\000\000\te\024\000\000\000\037\310\b\024\001\331\025\000\000\t\331\025\000\000\te\024\000\000\000\037\311\b\024\001\007\026\000\000\t\007\026\000\000\te\024\000\000\000 \312\b\353w\024\000\000\tw\024\000\000\000 \313\b\353\331\025\000\000\t\331\025\000\000\000 \314\b\353\007\026\000\000\t\007\026\000\000\000\037\315\b.\001w\024\000\000\tw\024\000\000\000\037\316\b.\001\331\025\000\000\t\331\025\000\000\000\037\317\b.\001\007\026\000\000\t\007\026\000\000\000\013\310\034\000\000\320\006>!\013\321\034\000\000\323\006F\"\005\020\006B#\321\344\031\000\000\006D\000#\322\344\031\000\000\006E\b\000$\324\006O\002\037\325\006S\002e\024\000\000\t\375\034\000\000\000\r\002\035\000\000%\037\326\006X\002e\024\000\000\t\375\034\000\000\000 \327\f\031w\024\000\000\tA\032\000\000\000\037\330\006i\001e\024\000\000\tA\032\000\000\000\037\331\006n\001\344\031\000\000\tA\032\000\000\000 \332\r\024`\035\000\000\ta\035\000\000\ta\035\000\000\tg\035\000\000\tg\035\000\000\ts\035\000\000\000&\rf\035\000\000'\013o\035\000\000\334\016.\f\333\007\b\n|\035\000\000\335\006(\003\r\201\035\000\000(e\024\000\000\ta\035\000\000\ta\035\000\000\000\037\336\006\036\002`\035\000\000\tg\035\000\000\tg\035\000\000\000\037\337\006T\003\300\034\000\000\te\024\000\000\te\024\000\000\000)\340\006i\002\te\024\000\000\000\020\341\0065\002\t`\035\000\000\000\037\342\006z\002\336\035\000\000\tA\032\000\000\000\rK\032\000\000\037\343\006I\003\344\031\000\000\t\344\031\000\000\000\037\344\006V\003\311\034\000\000\t\344\031\000\000\t\344\031\000\000\000\037\345\006\033\002`\035\000\000\tg\035\000\000\000\037\346\006\232\003e\024\000\000\tA\032\000\000\tg\035\000\000\000\037\347\006\245\003g\035\000\000\tB\036\000\000\tP\036\000\000\tg\035\000\000\000*G\036\000\000\rL\036\000\000\f\350\005\004*A\032\000\000\037\351\006\235\003e\024\000\000\tB\036\000\000\tP\036\000\000\tg\035\000\000\000\020\352\006>\003\t`\035\000\000\tg\035\000\000\tg\035\000\000\ts\035\000\000\000)\353\006o\002\te\024\000\000\000+\354\006\305\001e\024\000\000\037\355\006&\002`\035\000\000\t`\035\000\000\tg\035\000\000\000\020\356\006\307\001\t.\001\000\000\000 \357\006uw\024\000\000\tP\036\000\000\t\316\036\000\000\000*\323\036\000\000\r\336\035\000\000 \360\006\260\344\031\000\000\tP\036\000\000\t\316\036\000\000\te\024\000\000\000 \361\006\264o\035\000\000\tP\036\000\000\t\316\036\000\000\te\024\000\000\000\037\362\006\020\003e\024\000\000\tA\032\000\000\000\037\363\006\250\003g\035\000\000\t0\037\000\000\t5\037\000\000\tg\035\000\000\000*\336\035\000\000*:\037\000\000\r?\037\000\000\003L\036\000\000\037\364\006\241\003e\024\000\000\t\336\035\000\000\tL\036\000\000\000\013`\037\000\000\365\006P\"\005\020\006L#\321\b\031\000\000\006N\000#\322\b\031\000\000\006O\b\000)\366\006u\002\te\024\000\000\000\037\367\006L\003\b\031\000\000\t\b\031\000\000\000\037\370\006Z\003X\037\000\000\t\b\031\000\000\t\b\031\000\000\000\037\371\006u\001\b\031\000\000\tA\032\000\000\000 \372\006\310\b\031\000\000\tP\036\000\000\t\316\036\000\000\te\024\000\000\000 \373\006\315\345\037\000\000\tP\036\000\000\t\316\036\000\000\te\024\000\000\000\f\374\007\b \375\006{\331\025\000\000\tP\036\000\000\t\316\036\000\000\000 \376\006~\007\026\000\000\tP\036\000\000\t\316\036\000\000\000\025\017&\351\034\000\000\025\017'\356\034\000\000\025\017(\271\035\000\000\025\017+\003\035\000\000\025\017.\210\036\000\000\025\0173\300\034\000\000\025\0174\311\034\000\000\025\0176\347\n\000\000\025\0177\022\035\000\000\025\0178 \035\000\000\025\0179/\035\000\000\025\017:>\035\000\000\025\017;\221\035\000\000\025\017<X\005\000\000\025\017=\304\035\000\000\025\017>\317\035\000\000\025\017?\343\035\000\000\025\017@\362\035\000\000\025\017A\006\036\000\000\025\017C\025\036\000\000\025\017D)\036\000\000\025\017EU\036\000\000\025\017Gn\036\000\000\025\017H\223\036\000\000\025\017I\234\036\000\000\025\017J\260\036\000\000\025\017K\273\036\000\000\025\017L\330\036\000\000\025\017M\360\036\000\000\025\017N\b\037\000\000\025\017P\027\037\000\000\025\017QD\037\000\000\033\001\001,\020:\367\n\000\000\000-\007\001G\022\034w\024\000\000\tw\024\000\000\000-\b\001I\022 \331\025\000\000\t\331\025\000\000\000-\t\001c\022\"\331\025\000\000\t\331\025\000\000\000-\n\001K\022$\331\025\000\000\t\331\025\000\000\000-\013\001g\022&\331\025\000\000\t\331\025\000\000\000-\f\001L\022*\331\025\000\000\t\331\025\000\000\000-\r\001M\022(\331\025\000\000\t\331\025\000\000\t\331\025\000\000\000-\016\001j\022,\331\025\000\000\t\331\025\000\000\000-\017\001m\022.\331\025\000\000\t\331\025\000\000\000-\020\001N\0220\331\025\000\000\t\331\025\000\000\000-\021\001p\0222\331\025\000\000\t\331\025\000\000\t\331\025\000\000\000-\022\001O\0224\331\025\000\000\t\331\025\000\000\000-\023\001P\0226\331\025\000\000\t\331\025\000\000\000-\024\001s\022:\331\025\000\000\t\331\025\000\000\000-\025\001v\0228\331\025\000\000\t\331\025\000\000\000-\026\001Q\022>\331\025\000\000\t\331\025\000\000\000-\027\001y\022<\331\025\000\000\t\331\025\000\000\000-\030\001|\022@\331\025\000\000\t\331\025\000\000\000-\031\001R\022B\331\025\000\000\t\331\025\000\000\000-\032\001\177\022D\331\025\000\000\t\331\025\000\000\t\331\025\000\000\000-\033\001S\022F\331\025\000\000\t\331\025\000\000\000-\034\001\202\022H\331\025\000\000\t\331\025\000\000\t\331\025\000\000\t\331\025\000\000\000-\035\001\205\022J\331\025\000\000\t\331\025\000\000\t\331\025\000\000\000-\036\001\210\022L\331\025\000\000\t\331\025\000\000\t\331\025\000\000\000-\037\001T\022N\331\025\000\000\t\331\025\000\000\t\331\025\000\000\000. \001!\001\022Pe\024\000\000\t\331\025\000\000\000-\"\001U\022R\331\025\000\000\t\331\025\000\000\t$\025\000\000\000-#\001\213\022T\331\025\000\000\t\331\025\000\000\t\331\025\000\000\000-$\001\216\022Ve\024\000\000\t\331\025\000\000\000.%\001&\001\022[\016#\000\000\t\331\025\000\000\000/'\001\002\001.(\001)\001\022_\016#\000\000\t\331\025\000\000\t\331\025\000\000\000.*\001+\001\022^\016#\000\000\t\331\025\000\000\t\331\025\000\000\000.,\001-\001\022d\016#\000\000\t\331\025\000\000\000..\001/\001\022h\016#\000\000\t\331\025\000\000\t\331\025\000\000\000.0\0011\001\022g\016#\000\000\t\331\025\000\000\t\331\025\000\000\000.2\0013\001\022j\016#\000\000\t\331\025\000\000\t\331\025\000\000\000.4\0015\001\022o\016#\000\000\t\331\025\000\000\000.6\0017\001\022q\016#\000\000\t\331\025\000\000\000.8\0019\001\022s\016#\000\000\t\331\025\000\000\t\331\025\000\000\000-:\001\343\022t\344\031\000\000\t\344\031\000\000\000-;\001V\022v\331\025\000\000\t\331\025\000\000\te\024\000\000\000-<\001\221\022x\331\025\000\000\t\331\025\000\000\000-=\001\367\022y\b\031\000\000\t\b\031\000\000\000->\001\224\022{\b\031\000\000\t\331\025\000\000\000-?\001W\022\205\331\025\000\000\t\331\025\000\000\000-@\001X\022}\331\025\000\000\t\331\025\000\000\000-A\001\233\022\177\331\025\000\000\t\331\025\000\000\000-B\001\236\022\201\331\025\000\000\t\331\025\000\000\000-C\001\241\022\203\331\025\000\000\t\331\025\000\000\000-D\001\244\022\207\344\031\000\000\t\331\025\000\000\000-E\001\250\022\211\344\031\000\000\t\331\025\000\000\000-F\001\230\022\212\b\031\000\000\t\331\025\000\000\000-G\001Y\022\214\331\025\000\000\t\331\025\000\000\t\264$\000\000\000\r\331\025\000\000-H\001\253\022\215w\024\000\000\tA\032\000\000\000-I\001\255\022\216\331\025\000\000\tA\032\000\000\000-J\001\257\022\220\331\025\000\000\t\331\025\000\000\000-K\001\262\022\222\331\025\000\000\t\331\025\000\000\t\331\025\000\000\000-L\001Z\022\226\331\025\000\000\t\331\025\000\000\te\024\000\000\000-M\001\270\022\230\331\025\000\000\t\331\025\000\000\t\331\025\000\000\000-N\001\273\022\232\331\025\000\000\t\331\025\000\000\t\331\025\000\000\t$\025\000\000\000-O\001\276\022\234\331\025\000\000\t\331\025\000\000\000-P\001\301\022\236\331\025\000\000\t\331\025\000\000\000-Q\001\304\022\240\331\025\000\000\t\331\025\000\000\t\344\031\000\000\000-R\001\307\022\242\331\025\000\000\t\331\025\000\000\te\024\000\000\000.S\001T\001\022\247\016#\000\000\t\331\025\000\000\000-U\001[\022\251\331\025\000\000\t\331\025\000\000\000-V\001\\\022\253\331\025\000\000\t\331\025\000\000\000-W\001]\022\255\331\025\000\000\t\331\025\000\000\000-X\001^\022\257\331\025\000\000\t\331\025\000\000\000-Y\001_\022\261\331\025\000\000\t\331\025\000\000\000-Z\001\312\022\263\331\025\000\000\t\331\025\000\000\000-[\001\315\022\265\331\025\000\000\t\331\025\000\000\000.\\\001]\001\023\274\331\025\000\000\t\331\025\000\000\000-^\001d\023\277\331\025\000\000\t\331\025\000\000\000._\001`\001\023\302\331\025\000\000\t\331\025\000\000\000-a\001h\023\305\331\025\000\000\t\331\025\000\000\000.b\001c\001\023\310\331\025\000\000\t\331\025\000\000\t\331\025\000\000\000.d\001e\001\023\313\331\025\000\000\t\331\025\000\000\000-f\001k\023\316\331\025\000\000\t\331\025\000\000\000-g\001n\023\321\331\025\000\000\t\331\025\000\000\000.h\001i\001\023\324\331\025\000\000\t\331\025\000\000\000-j\001q\023\327\331\025\000\000\t\331\025\000\000\t\331\025\000\000\000.k\001l\001\023\332\331\025\000\000\t\331\025\000\000\000.m\001n\001\023\335\331\025\000\000\t\331\025\000\000\000-o\001w\023\351\331\025\000\000\t\331\025\000\000\000-p\001t\023\362\331\025\000\000\t\331\025\000\000\000-q\001z\023\373\331\025\000\000\t\331\025\000\000\000.r\001s\001\023\376\331\025\000\000\t\331\025\000\000\0000t\001}\023\001\001\331\025\000\000\t\331\025\000\000\0001u\001v\001\023\004\001\331\025\000\000\t\331\025\000\000\0000w\001\200\023\007\001\331\025\000\000\t\331\025\000\000\t\331\025\000\000\0001x\001y\001\023\r\001\331\025\000\000\t\331\025\000\000\0000z\001\203\023\020\001\331\025\000\000\t\331\025\000\000\t\331\025\000\000\t\331\025\000\000\0000{\001\206\023\025\001\331\025\000\000\t\331\025\000\000\t\331\025\000\000\0000|\001\211\023\030\001\331\025\000\000\t\331\025\000\000\t\331\025\000\000\0001}\001~\001\023\033\001\331\025\000\000\t\331\025\000\000\t\331\025\000\000\0001\177\001\200\001\023\036\001\331\025\000\000\t\331\025\000\000\t$\025\000\000\0000\201\001\214\023+\001\331\025\000\000\t\331\025\000\000\t\331\025\000\000\0000\202\001\217\023.\001e\024\000\000\t\331\025\000\000\0001\203\001\204\001\023U\001\331\025\000\000\t\331\025\000\000\te\024\000\000\0000\205\001\222\023X\001\331\025\000\000\t\331\025\000\000\0000\206\001\226\023[\001\b\031\000\000\t\331\025\000\000\0000\207\001\231\023^\001\b\031\000\000\t\331\025\000\000\0001\210\001\211\001\023a\001\331\025\000\000\t\331\025\000\000\0000\212\001\234\023d\001\331\025\000\000\t\331\025\000\000\0000\213\001\237\023g\001\331\025\000\000\t\331\025\000\000\0000\214\001\242\023m\001\331\025\000\000\t\331\025\000\000\0001\215\001\216\001\023p\001\331\025\000\000\t\331\025\000\000\0000\217\001\246\023s\001\344\031\000\000\t\331\025\000\000\0000\220\001\251\023v\001\344\031\000\000\t\331\025\000\000\0001\221\001\222\001\023y\001\331\025\000\000\t\331\025\000\000\t\264$\000\000\0000\223\001\260\023\235\001\331\025\000\000\t\331\025\000\000\0000\224\001\263\023\240\001\331\025\000\000\t\331\025\000\000\t\331\025\000\000\0001\225\001\226\001\023\301\001\331\025\000\000\t\331\025\000\000\t\331\025\000\000\0000\227\001\271\023\332\001\331\025\000\000\t\331\025\000\000\t\331\025\000\000\0000\230\001\274\023\337\001\331\025\000\000\t\331\025\000\000\t\331\025\000\000\t$\025\000\000\0000\231\001\277\023\357\001\331\025\000\000\t\331\025\000\000\0000\232\001\302\023\b\002\331\025\000\000\t\331\025\000\000\0000\233\001\305\023\016\002\331\025\000\000\t\331\025\000\000\t\344\031\000\000\0000\234\001\310\023\024\002\331\025\000\000\t\331\025\000\000\te\024\000\000\0001\235\001\236\001\0230\002\331\025\000\000\t\331\025\000\000\0001\237\001\240\001\0233\002\331\025\000\000\t\331\025\000\000\0001\241\001\242\001\0239\002\331\025\000\000\t\331\025\000\000\0001\243\001\244\001\023<\002\331\025\000\000\t\331\025\000\000\0001\245\001\246\001\023?\002\331\025\000\000\t\331\025\000\000\0000\247\001\313\023B\002\331\025\000\000\t\331\025\000\000\0000\250\001\316\023E\002\331\025\000\000\t\331\025\000\000\0002\"*\000\000\257\001\026\0062+*\000\000\256\001\025\025\"\005\b\025\r3\251\001e\024\000\000\025\017\0003\252\001D*\000\000\025\024\0044\005\004\025\0203\253\001.\001\000\000\025\022\0003\254\001_*\000\000\025\023\000\000\0005K\032\000\0006k*\000\000\004\0007\255\001\b\0072.\001\000\000\260\001\030\0248\261\001\031>\001p*\000\000\te\024\000\000\0008\262\001\031\326\002p*\000\000\t\231*\000\000\000\r\236*\000\0002\247*\000\000\331\001\033\0059\005\330\001\330\03213\263\001e\024\000\000\0323\0003\264\001\336\035\000\000\0326\b3\265\001\336\035\000\000\0327\0203\266\001\336\035\000\000\0328\0303\267\001\336\035\000\000\0329 3\270\001\336\035\000\000\032:(3\271\001\336\035\000\000\032;03\272\001\336\035\000\000\032<83\273\001\336\035\000\000\032=@3\274\001\336\035\000\000\032@H3\275\001\336\035\000\000\032AP3\276\001\336\035\000\000\032BX3\277\001\321+\000\000\032D`3\301\001\331+\000\000\032Fh3\302\001e\024\000\000\032Hp3\303\001e\024\000\000\032It3\304\001\336+\000\000\032Jx3\306\001\347+\000\000\032M\2003\310\001\354+\000\000\032N\2023\312\001\361+\000\000\032O\2033\313\001\375+\000\000\032Q\2103\315\001\007,\000\000\032Y\2203\317\001\020,\000\000\032[\2303\321\001\030,\000\000\032\\\2403\323\001\331+\000\000\032]\2503\324\001`\035\000\000\032^\2603\325\001g\035\000\000\032_\2703\326\001e\024\000\000\032`\3003\327\001 ,\000\000\032b\304\000\r\326+\000\000:\300\001\r\247*\000\0002\344\031\000\000\305\001\002\230/\307\001\007\002/\311\001\006\0015K\032\000\0006k*\000\000\001\000\r\002,\000\000;\314\001\032+2\344\031\000\000\316\001\002\231\r\025,\000\000:\320\001\r\035,\000\000:\322\0015K\032\000\0006k*\000\000\024\0008\332\001\031\363\002G\036\000\000\tB\036\000\000\te\024\000\000\tF,\000\000\000*\231*\000\0008\333\001\031\344\002p*\000\000\tL\036\000\000\t\231*\000\000\0008\334\001\031\372\002e\024\000\000\t5\037\000\000\tF,\000\000\0008\335\001\031=\002e\024\000\000\t\231*\000\000\te\024\000\000\0008\336\001\031D\002e\024\000\000\tF,\000\000\t5\037\000\000<\000=\337\001\340\001\031\200\002e\024\000\000\tF,\000\000\t5\037\000\000<\0008\341\001\031\327\002p*\000\000\t\231*\000\000\000>\342\001\031\335\002p*\000\0008\343\001\031I\001g\035\000\000\tP\036\000\000\tg\035\000\000\t\354,\000\000\000*\361,\000\000\r\031*\000\0008\344\001\031(\001g\035\000\000\tB\036\000\000\tP\036\000\000\tg\035\000\000\t\354,\000\000\0008\345\001\031$\001e\024\000\000\t%-\000\000\000\r*-\000\000\003\031*\000\0008\346\001\031Q\001g\035\000\000\tB\036\000\000\tN-\000\000\tg\035\000\000\t\354,\000\000\000*S-\000\000\rA\032\000\0008\347\001\031\345\002p*\000\000\tL\036\000\000\t\231*\000\000\0008\350\001\031\353\002p*\000\000\tL\036\000\000\0008\351\001\031N\002e\024\000\000\tB\036\000\000\tg\035\000\000\t5\037\000\000<\000=\352\001\353\001\031\207\002e\024\000\000\t5\037\000\000\t5\037\000\000<\0008\354\001\031\002\003p*\000\000\tp*\000\000\t\231*\000\000\0008\355\001\031V\002e\024\000\000\tF,\000\000\t5\037\000\000\t\337-\000\000\0002\350-\000\000\357\001\034 ?\336\035\000\000\356\001=\360\001\361\001\031\265\002e\024\000\000\tF,\000\000\t5\037\000\000\t\337-\000\000\0008\362\001\031c\002e\024\000\000\tB\036\000\000\tg\035\000\000\t5\037\000\000\t\337-\000\000\000=\363\001\364\001\031\274\002e\024\000\000\t5\037\000\000\t5\037\000\000\t\337-\000\000\0008\365\001\031^\002e\024\000\000\t5\037\000\000\t\337-\000\000\000=\366\001\367\001\031\271\002e\024\000\000\t5\037\000\000\t\337-\000\000\0008\370\001\031-\001g\035\000\000\t0\037\000\000\tL\036\000\000\t\354,\000\000\000@\371\001\031aG\036\000\000\tB\036\000\000\t5\037\000\000\000@\372\001\031je\024\000\000\t:\037\000\000\t:\037\000\000\000@\373\001\031\203e\024\000\000\t:\037\000\000\t:\037\000\000\000@\374\001\031WG\036\000\000\tB\036\000\000\t5\037\000\000\000@\375\001\031\273g\035\000\000\t:\037\000\000\t:\037\000\000\0008\376\001\031B\003g\035\000\000\tB\036\000\000\tg\035\000\000\t5\037\000\000\t\017/\000\000\000*\024/\000\000\r\031/\000\000\003\036/\000\000:\377\001@\000\002\031\336g\035\000\000\t:\037\000\000\000@\001\002\031eG\036\000\000\tB\036\000\000\t5\037\000\000\tg\035\000\000\000@\002\002\031me\024\000\000\t:\037\000\000\t:\037\000\000\tg\035\000\000\000@\003\002\031\\G\036\000\000\tB\036\000\000\t5\037\000\000\tg\035\000\000\0008\004\002\031W\001g\035\000\000\t0\037\000\000\t\232/\000\000\tg\035\000\000\t\354,\000\000\000*\237/\000\000\r:\037\000\000@\005\002\031\277g\035\000\000\t:\037\000\000\t:\037\000\000\0008\006\002\031y\001w\024\000\000\t5\037\000\000\t\315/\000\000\000*\322/\000\000\rG\036\000\0008\007\002\031~\001\331\025\000\000\t5\037\000\000\t\315/\000\000\000@\b\002\031\331G\036\000\000\tB\036\000\000\t5\037\000\000\t\315/\000\000\0008\t\002\031\254\001\344\031\000\000\t5\037\000\000\t\315/\000\000\te\024\000\000\0008\n\002\031\261\001o\035\000\000\t5\037\000\000\t\315/\000\000\te\024\000\000\000@\013\002\031\207g\035\000\000\tB\036\000\000\t5\037\000\000\tg\035\000\000\0008\f\002\031D\001e\024\000\000\tp*\000\000\0008\r\002\031\002\001e\024\000\000\t:\037\000\000\t:\037\000\000\tg\035\000\000\0008\016\002\031\006\001G\036\000\000\tB\036\000\000\t5\037\000\000\tg\035\000\000\0008\017\002\031\013\001G\036\000\000\tG\036\000\000\t:\037\000\000\tg\035\000\000\0008\020\002\031\017\001G\036\000\000\tG\036\000\000\tL\036\000\000\tg\035\000\000\0008\021\002\031K\002e\024\000\000\t5\037\000\000<\000=\022\002\023\002\031\204\002e\024\000\000\t5\037\000\000<\000@\024\002\031\244G\036\000\000\t:\037\000\000\tL\036\000\000\000@\025\002\031\311G\036\000\000\t:\037\000\000\t:\037\000\000\000@\026\002\031\256G\036\000\000\t:\037\000\000\tL\036\000\000\000@\027\002\031\324G\036\000\000\t:\037\000\000\t:\037\000\000\000@\030\002\031\375G\036\000\000\t:\037\000\000\tL\036\000\000\tg\035\000\000\0008\031\002\031\200\001\007\026\000\000\t5\037\000\000\t\315/\000\000\0008\032\002\031\271\001\b\031\000\000\t5\037\000\000\t\315/\000\000\te\024\000\000\0008\033\002\031\300\001\345\037\000\000\t5\037\000\000\t\315/\000\000\te\024\000\000\0002\2511\000\000\035\002\035\0302\354+\000\000\034\002\002%2\2731\000\000 \002\035\0312\3041\000\000\037\002\002'/\036\002\005\0022\3221\000\000\"\002\035\0322e\024\000\000!\002\002)2\3441\000\000$\002\035\0332\344\031\000\000#\002\002,2\354+\000\000%\002\037:2\344\031\000\000&\002\037<2\344\031\000\000'\002\037=2\344\031\000\000(\002\037>2\0322\000\000*\002\037+2\2511\000\000)\002\00242,2\000\000,\002\037,2\2731\000\000+\002\00262>2\000\000.\002\037-2\3221\000\000-\002\00282P2\000\0000\002\037.2\3441\000\000/\002\002:2b2\000\0002\002\037e2\344\031\000\0001\002\002H2\344\031\000\0003\002\037W2}2\000\0006\002\003\0302\2062\000\0005\002\002&/4\002\b\0012\2242\000\0008\002\003\0312\347+\000\0007\002\002(2\2462\000\000:\002\003\0332o\035\000\0009\002\002-2\2062\000\000;\002\037G2o\035\000\000<\002\037I2o\035\000\000=\002\037J2o\035\000\000>\002\037K2\3342\000\000@\002\03712}2\000\000?\002\00252\3562\000\000B\002\03722\2242\000\000A\002\00272\0003\000\000D\002\03732&\001\000\000C\002\00292\0223\000\000F\002\03742\2462\000\000E\002\002;2$3\000\000H\002\037f2o\035\000\000G\002\002I2o\035\000\000I\002\037Z:K\002@L\002#z\336\035\000\000\te\024\000\000\tA\032\000\000\000AM\002#}V3\000\000\r63\000\000@N\002$le\024\000\000\te\024\000\000\000@O\002$me\024\000\000\te\024\000\000\000@P\002$ne\024\000\000\te\024\000\000\000@Q\002$oe\024\000\000\te\024\000\000\000@R\002$qe\024\000\000\te\024\000\000\000@S\002$pe\024\000\000\te\024\000\000\000@T\002$re\024\000\000\te\024\000\000\000@U\002$se\024\000\000\te\024\000\000\000@V\002$te\024\000\000\te\024\000\000\000@W\002$ue\024\000\000\te\024\000\000\000@X\002$ve\024\000\000\te\024\000\000\000@Y\002$ze\024\000\000\te\024\000\000\000@Z\002$}e\024\000\000\te\024\000\000\000@[\002$\202e\024\000\000\te\024\000\000\0002\247*\000\000\\\002&\0072?4\000\000_\002)T2H4\000\000^\002(\016:]\002B`\002)\365\002\tW4\000\000\000\r-4\000\000@a\002)\325e\024\000\000\tW4\000\000\0008b\002)\367\002e\024\000\000\tW4\000\000\0008c\002)\371\002e\024\000\000\tW4\000\000\000@d\002)\332e\024\000\000\tW4\000\000\0008e\002)\345\001e\024\000\000\tW4\000\000\0008f\002)\333\002e\024\000\000\t\2774\000\000\t\3044\000\000\000*W4\000\000*\3114\000\000\r64\000\0008g\002)4\002\336\035\000\000\t0\037\000\000\te\024\000\000\t\2774\000\000\000@h\002)\366W4\000\000\tP\036\000\000\tP\036\000\000\0008i\002)F\001e\024\000\000\t\2774\000\000\tP\036\000\000<\0008j\002)\t\002e\024\000\000\te\024\000\000\tW4\000\000\0008k\002)r\002e\024\000\000\tP\036\000\000\t\2774\000\000\0008l\002)\206\002g\035\000\000\t[5\000\000\tg\035\000\000\tg\035\000\000\t\2774\000\000\000*`\035\000\000@m\002)\374W4\000\000\tP\036\000\000\tP\036\000\000\t\2774\000\000\000=n\002o\002)\227\001e\024\000\000\t\2774\000\000\tP\036\000\000<\0008p\002)\254\002e\024\000\000\tW4\000\000\t\344\031\000\000\te\024\000\000\0008q\002)\340\002e\024\000\000\tW4\000\000\t\3005\000\000\000\r\3055\000\000\00364\000\0008r\002)\261\002\344\031\000\000\tW4\000\000\0008s\002)\214\002g\035\000\000\t\3715\000\000\tg\035\000\000\tg\035\000\000\t\2774\000\000\000*a\035\000\0008t\002)\346\001e\024\000\000\tW4\000\000\000Au\002*/e\024\000\0008v\002)A\002\336\035\000\000\t\336\035\000\000\000Bw\002)\007\003\tA\032\000\000\0008x\002)L\001e\024\000\000\tP\036\000\000<\0008y\002)\n\002e\024\000\000\te\024\000\000\tW4\000\000\000@z\002*Re\024\000\000\te\024\000\000\0008{\002)x\002e\024\000\000\tA\032\000\000\000@|\002)\222e\024\000\000\tA\032\000\000\000@}\002)\224e\024\000\000\tA\032\000\000\tA\032\000\000\000B~\002)\266\002\tW4\000\000\000=\177\002\200\002)\232\001e\024\000\000\tP\036\000\000<\000B\201\002)0\001\t\2774\000\000\t0\037\000\000\0008\202\002)4\001e\024\000\000\t\2774\000\000\t0\037\000\000\te\024\000\000\tg\035\000\000\0008\203\002)N\001e\024\000\000\t0\037\000\000\tP\036\000\000<\000=\204\002\205\002)\234\001e\024\000\000\tP\036\000\000\tP\036\000\000<\000A\206\002)\255W4\000\000@\207\002)\273\336\035\000\000\t\336\035\000\000\0008\210\002)\177\002e\024\000\000\te\024\000\000\tW4\000\000\0008\211\002)U\001e\024\000\000\t\2774\000\000\tP\036\000\000\t\337-\000\000\000@\212\002*'e\024\000\000\tP\036\000\000\t\337-\000\000\0008\213\002)]\001e\024\000\000\t0\037\000\000\tP\036\000\000\t\337-\000\000\0008\214\002)b\001e\024\000\000\t0\037\000\000\tg\035\000\000\tP\036\000\000<\000=\215\002\216\002)\303\001e\024\000\000\t\2774\000\000\tP\036\000\000\t\337-\000\000\000=\217\002\220\002)\310\001e\024\000\000\tP\036\000\000\t\337-\000\000\0008\221\002)f\001e\024\000\000\t0\037\000\000\tg\035\000\000\tP\036\000\000\t\337-\000\000\000=\222\002\223\002)\313\001e\024\000\000\tP\036\000\000\tP\036\000\000\t\337-\000\000\0002\0378\000\000\224\002+0\r$8\000\000\003\3221\000\0002o\035\000\000\225\002-&@\226\002-_e\024\000\000\tp*\000\000\000@\227\002-ee\024\000\000\tp*\000\000\000@\230\002-\222e\024\000\000\tp*\000\000\000@\231\002-he\024\000\000\tp*\000\000\000@\232\002-\237e\024\000\000\tp*\000\000\t)8\000\000\000@\233\002-le\024\000\000\tp*\000\000\000@\234\002-pe\024\000\000\tp*\000\000\000@\235\002-ue\024\000\000\tp*\000\000\000@\236\002-xe\024\000\000\tp*\000\000\000@\237\002-}e\024\000\000\tp*\000\000\000@\240\002-\202e\024\000\000\tp*\000\000\000@\241\002-\207e\024\000\000\tp*\000\000\000@\242\002-\214e\024\000\000\tp*\000\000\000@\243\002+7p*\000\000\tp*\000\000\t\0268\000\000\000@\244\002-\246p*\000\000\tp*\000\000\000@\245\002-\251p*\000\000\tp*\000\000\000@\246\002+4\0268\000\000\tA\032\000\000\000@\247\002-\233)8\000\000\tA\032\000\000\0002S9\000\000\251\002.\0072\344\031\000\000\250\002\002\2342e9\000\000\253\0020\0072\344\031\000\000\252\002\002\240A\254\0021HJ9\000\000@\255\0021Nw\024\000\000\t\\9\000\000\t\\9\000\000\000@\256\0021R\\9\000\000\t\2329\000\000\000\r\036/\000\000@\257\0021K\\9\000\000\t\2569\000\000\000\r\\9\000\000@\260\0021\213\336\035\000\000\t\024/\000\000\000@\261\0021\216\336\035\000\000\t\3219\000\000\000\r\3269\000\000\003\\9\000\000@\262\0021w\2329\000\000\t\3219\000\000\000@\263\0021{\2329\000\000\t\3219\000\000\000@\264\0021Xg\035\000\000\t0\037\000\000\tg\035\000\000\tP\036\000\000\t\017/\000\000\000\003\006\005\000\000C\016\004\000\000%:\000\000D\267\0026:\000\000E\f\001\013\001\036\001\000\000\000\r)\004\000\000C[\003\000\000D:\000\000D\267\002L:\000\000\000\r.\004\000\000C\b\001\000\000Z:\000\000D\267\002k:\000\000E\f\001\027\001\036\001\000\000\000\r7\001\000\000CU\000\000\000y:\000\000D\267\002\201:\000\000\000\r<\001\000\000C\232\003\000\000\217:\000\000D\267\002\227:\000\000\000\rG\004\000\000C\320\003\000\000\245:\000\000D\267\002\255:\000\000\000\rV\004\000\000F\000\354\r\000\000\270\002\271\0023\003G;:\000\000\0003\021'H\034:\000\000\001\001,\001B\000Gp:\000\000\0023\021\fHQ:\000\000\003\001,\001B\000I\206:\000\000\001\f\000\000\0003\022'J\034:\000\000\001\f\000\000\000\0010\001B\000I\234:\000\000\002\f\000\000\0003\023'J\034:\000\000\002\f\000\000\000\0014\001B\000\000\000j\000\000\000\005\000\b\000\004\000\000\000\020\000\000\000\027\000\000\000\036\000\000\000@\000\000\000\004\000\020\004 <\000\004\000\020\004 <\000\004\020 \004\200\001\270\001\004\264\005\274\005\004\360\t\364\t\004\374\t\200\n\004\250\016\260\016\004\264\016\274\016\000\004\020 \004\200\001\270\001\004\264\005\274\005\004\360\t\364\t\004\374\t\200\n\004\250\016\260\016\004\264\016\274\016\000\354\n\000\000\005\000\000\000\213\023\000\000\030\017\000\000\021\024\000\000\342\005\000\0004\b\000\000>\b\000\000\337\031\000\000\334\000\000\000\032\034\000\000\327\f\000\000\254\013\000\000\356\005\000\000+\017\000\000\351\000\000\000\377\030\000\000\374\001\000\000\376\001\000\0007\027\000\000\376\017\000\000\261\022\000\000\206\n\000\000S\024\000\000\377\r\000\000\340\f\000\0002\002\000\000\272\n\000\000\257\032\000\000\274\013\000\000-\017\000\000\252\025\000\000\003\016\000\000&\016\000\000\002\003\000\000x\007\000\000\311\021\000\000\347\036\000\000\263\032\000\000\316\034\000\000\035\001\000\000\341\004\000\0004\016\000\000B\027\000\000\002\020\000\000;\017\000\000P\001\000\0002\030\000\0005\020\000\000]\001\000\000g\016\000\000/\003\000\000\346\032\000\000\025\031\000\000\257\025\000\000\360\013\000\000~\006\000\000\240\035\000\000\263\022\000\000f\002\000\000\207\024\000\000\323\035\000\000\000\000\000\000%\034\000\000\325\022\000\000,\000\000\000\031\033\000\000\342\025\000\000\277\020\000\000#\f\000\000\263\024\000\000\001\035\000\000]\017\000\000Q\034\000\000\000\036\000\000\352\031\000\000H\031\000\000\024\005\000\000X\000\000\000\034\t\000\000u\027\000\000E\033\000\000\360\005\000\000U\034\000\000,\f\000\000&\004\000\000\201\007\000\000\366\036\000\000\326\t\000\000>\020\000\000]\000\000\000z\027\000\000\002\023\000\000\177\027\000\000\261\006\000\000s\002\000\000I\033\000\000M\033\000\000\311\020\000\000Y\034\000\000\322\020\000\000O\031\000\000\004\036\000\000\354\025\000\000\342\f\000\000a\017\000\000\356\n\000\000\332\020\000\000x\002\000\000\203\027\000\000\365\n\000\000\374\n\000\000^\030\000\000X\b\000\000\342\021\000\000\356\f\000\000\006\023\000\000R\033\000\000\365\005\000\000\013\036\000\0001\f\000\000\363\025\000\000\374\036\000\000\020\023\000\000d\030\000\000\016\035\000\000\020\036\000\000\002\037\000\000U\031\000\000b\003\000\000\024\035\000\000\370\f\000\000\341\020\000\000g\017\000\000V\033\000\000\032\035\000\000\206\007\000\000\\\031\000\000\357\031\000\000l\017\000\000\t\037\000\000\037\035\000\000\212\027\000\000\353\021\000\000v\016\000\000\372\005\000\000\362\021\000\000\031\005\000\000g\003\000\000\266\006\000\000\364\031\000\000[\033\000\000 \005\000\000\001\013\000\000\334\t\000\000\344\t\000\000\275\024\000\000\026\036\000\000\371\021\000\000~\002\000\000\345\020\000\000\t\013\000\000\214\007\000\000(\005\000\000\355\t\000\000\"\t\000\000\276\006\000\000\017\037\000\000\025\023\000\000c\000\000\000\304\006\000\000\034\023\000\000\222\007\000\000^\b\000\000\205\002\000\000\352\020\000\000\376\f\000\000\034\036\000\000&\036\000\000-\005\000\0008\005\000\000\024\037\000\000\373\031\000\000B\005\000\000\017\013\000\000\306\024\000\000|\016\000\000\232\007\000\000_\034\000\000\357\020\000\000\033\013\000\000\371\025\000\000\206\016\000\000%\035\000\000\213\016\000\000b\031\000\000$\023\000\000\366\020\000\000\245\007\000\000\313\006\000\000\363\t\000\000\037\037\000\000\001\026\000\000\221\027\000\000j\000\000\000#\013\000\000\221\016\000\000\322\024\000\000h\031\000\000,\004\000\000+\023\000\000\255\007\000\000\001\006\000\000j\030\000\000\212\002\000\000(\t\000\000b\b\000\000q\030\000\0006\f\000\000\006\032\000\000o\031\000\000\330\024\000\000\000\022\000\000\t\026\000\000o\003\000\000+\013\000\000\231\027\000\000\324\006\000\000q\000\000\000w\031\000\000M\005\000\000+\035\000\0001\023\000\000\262\007\000\000&\037\000\0001\036\000\000\013\032\000\000\273\007\000\000\306\007\000\000\027\026\000\000\021\032\000\000v\001\000\000B\020\000\000\220\002\000\000\007\022\000\000v\030\000\000v\003\000\000p\b\000\000I\020\000\000\375\020\000\000\230\002\000\000\005\006\000\000\037\026\000\000|\031\000\000'\026\000\000\205\031\000\000\013\006\000\000\177\030\000\000\023\006\000\000}\003\000\000\016\022\000\000\003\r\000\000\026\022\000\000\331\006\000\000}\001\000\000\023\r\000\000r\017\000\000\211\003\000\000\224\003\000\000e\033\000\000;\f\000\000\236\027\000\000R\005\000\0003\004\000\000]\005\000\000/\t\000\000\003\021\000\000\034\r\000\000j\034\000\000\346\024\000\000p\033\000\000$\022\000\000x\b\000\000\f\021\000\000=\004\000\000>\t\000\000\231\016\000\000\236\003\000\000\252\027\000\000\203\b\000\000\374\t\000\000\r\n\000\0002\035\000\000\251\003\000\000\026\021\000\000g\005\000\000H\004\000\0008\036\000\000\027\032\000\000\244\016\000\000!\021\000\000\265\027\000\000&\r\000\000\265\003\000\0007\021\000\0001\r\000\000\025\007\000\000\217\001\000\000=\036\000\000:\026\000\000H\026\000\000\216\b\000\000\304\027\000\000\256\016\000\000D\021\000\000.\022\000\000x\000\000\000\224\030\000\0008\r\000\000?\035\000\000:\022\000\000\240\030\000\000.\037\000\000R\036\000\000|\017\000\000J\035\000\000\313\007\000\000\233\001\000\000\251\030\000\000'\032\000\000E\f\000\000s\034\000\000]\036\000\000Q\004\000\000\360\024\000\000u\005\000\000T\035\000\0007\023\000\000\035\006\000\000\372\024\000\000O\020\000\000y\033\000\000\206\017\000\0009\037\000\000\266\030\000\000S\026\000\000\205\005\000\000]\026\000\000\236\002\000\000\030\n\000\000\202\000\000\000B\037\000\000\215\000\000\000\216\005\000\000H\037\000\000I\t\000\000P\f\000\000#\n\000\000\216\017\000\000/\013\000\000(\006\000\000\273\003\000\0003\032\000\000\206\033\000\000\300\030\000\000F\022\000\000\\\020\000\000\247\001\000\000\322\027\000\000*\n\000\000\231\000\000\000\252\002\000\0005\013\000\000N\037\000\000W\021\000\000l\036\000\000\326\007\000\000\214\033\000\000\231\005\000\000\b\025\000\000\306\003\000\000w\036\000\000\267\016\000\000S\037\000\000\243\000\000\000A\023\000\000]\f\000\000\214\031\000\000(\007\000\000\203\036\000\000D\r\000\000K\r\000\000?\013\000\000\262\001\000\000X\r\000\000c\021\000\000a\020\000\000P\022\000\000\303\016\000\000_\037\000\000\230\033\000\000U\t\000\000\224\b\000\000j\021\000\000i\037\000\000\177\034\000\000w\021\000\000\316\016\000\000\017\025\000\000\024\025\000\000\265\002\000\000a\004\000\000[\022\000\000\305\002\000\000\220\034\000\000\235\033\000\000L\013\000\000\231\017\000\000\247\033\000\000\251\000\000\0004\006\000\000\300\001\000\000g\022\000\000>\032\000\000\312\001\000\000\324\002\000\000d\r\000\000c\035\000\000o\037\000\000l\004\000\000\334\007\000\000d\f\000\000O\023\000\000a\t\000\0004\007\000\000\255\033\000\000\263\033\000\000Q\013\000\000p\r\000\000\330\027\000\000x\f\000\0005\n\000\000\244\017\000\000r\004\000\000}\r\000\000\345\027\000\000\322\003\000\000l\022\000\000\331\016\000\000\245\005\000\000&\025\000\000k\035\000\000\236\034\000\000\241\b\000\000:\006\000\000m\020\000\000g\026\000\000I\032\000\000\340\003\000\000u\020\000\000\256\005\000\000\200\004\000\000\343\007\000\000\357\003\000\000\231\031\000\0001\025\000\000\206\004\000\000D\n\000\000:\025\000\000\220\036\000\000\243\031\000\000|\022\000\000\212\r\000\000k\t\000\000\236\036\000\000s\026\000\000H\025\000\000X\013\000\000r\035\000\000[\023\000\000w\037\000\000t\t\000\000\211\021\000\000\200\037\000\000\247\036\000\000\346\016\000\000\272\033\000\000y\035\000\000a\023\000\000\251\b\000\000_\013\000\000\201\035\000\000\205\t\000\000z\026\000\000\302\033\000\000\203\022\000\000\356\007\000\000O\025\000\000\206\f\000\000\202\026\000\000\230\f\000\000\257\b\000\000\361\027\000\000\355\016\000\000\312\033\000\000\320\001\000\000\301\b\000\000\246\034\000\000\333\033\000\000\341\002\000\000\270\005\000\000;\007\000\000\372\027\000\000\342\033\000\000F\006\000\000^\025\000\000\221\021\000\000\330\001\000\000\277\005\000\000X\032\000\000h\013\000\000\345\033\000\000\264\000\000\000\311\b\000\000\311\005\000\000_\032\000\000\201\020\000\000\255\034\000\000o\013\000\000\262\017\000\000\354\033\000\000\367\003\000\000f\025\000\000w\013\000\000\273\000\000\000\220\r\000\000\226\t\000\000M\006\000\000C\007\000\000\351\002\000\000O\n\000\000v\025\000\000\236\t\000\000\320\030\000\000\000\b\000\000\377\003\000\000\213\026\000\000\215\022\000\000g\032\000\000\227\022\000\000\207\020\000\000\223\026\000\000\364\033\000\000\265\034\000\000\217\020\000\000\212\035\000\000o\032\000\000\247\t\000\000\003\030\000\000\260\036\000\000\320\b\000\000\327\030\000\000W\n\000\000\273\017\000\000\366\016\000\000\177\025\000\000\306\017\000\000|\032\000\000K\007\000\000\206\037\000\000k\023\000\000\237\026\000\000\336\b\000\000\234\020\000\000\t\004\000\000\230\r\000\000\324\017\000\000e\n\000\000\242\f\000\000\260\f\000\000\300\036\000\000\267\t\000\000\340\001\000\000\260\031\000\000\377\016\000\000\251\020\000\000\016\017\000\000\347\b\000\000\246\r\000\000T\006\000\000~\013\000\000\206\032\000\000\252\026\000\000\347\030\000\000\006\b\000\000t\023\000\000\301\031\000\000\260\r\000\000\210\013\000\000\016\b\000\000\241\022\000\000\222\004\000\000\210\025\000\000\361\002\000\000\001\034\000\000S\007\000\000Z\006\000\000\357\030\000\000[\007\000\000\270\r\000\000\371\002\000\000\302\034\000\000\220\013\000\000\232\004\000\000\027\004\000\000\241\004\000\000d\007\000\000\342\017\000\000\262\026\000\000\350\017\000\000\301\f\000\000\311\031\000\000|\023\000\000\251\022\000\000\021\030\000\000\310\t\000\000\361\b\000\000\t\034\000\000\371\030\000\000\231\021\000\000\360\017\000\000\367\b\000\000\311\034\000\000\317\t\000\000\357\001\000\000l\007\000\000\302\000\000\000_\006\000\000\317\031\000\000\307\f\000\000q\007\000\000\270\026\000\000\366\001\000\000\026\b\000\000\036\004\000\000\277\r\000\000\035\b\000\000-\b\000\000\240\021\000\000\250\021\000\000\377\b\000\000\221\032\000\000\006\t\000\000\365\017\000\000\016\t\000\000\317\036\000\000!\030\000\000\221\025\000\000d\006\000\000u\n\000\000\225\013\000\000\321\005\000\000\265\020\000\000\326\031\000\000\307\r\000\000)\030\000\000\331\005\000\000\232\032\000\000\312\000\000\000\316\f\000\000\202\023\000\000\257\021\000\000\021\034\000\000k\006\000\000\221\037\000\000\320\r\000\000\307\026\000\000\232\037\000\000\270\021\000\000\331\r\000\000\321\026\000\000\177\n\000\000t\006\000\000\301\021\000\000\241\025\000\000\342\r\000\000\246\013\000\000\323\000\000\000\340\036\000\000\027\t\000\000\244\037\000\000\254\037\000\000\243\032\000\000\247\004\000\000\261\004\000\000\351\r\000\000\272\004\000\000\252\032\000\000\331\026\000\000\231\035\000\000_ZN17__HIP_CoordinatesI14__HIP_BlockIdxE1yE\000_ZN17__HIP_CoordinatesI14__HIP_BlockIdxE1zE\000atan\000log10\000lrintl\000tgamma\000getenv\000_ZL4labsl\000_ZL5acosff\000_ZL6acoshff\000_ZL4erfff\000fmodf\000_ZL5sqrtff\000wcstok\000wcschr\000putchar\000iswctype\000difftime\000unsigned int\000_ZNK17__HIP_CoordinatesI15__HIP_ThreadIdxE3__XcvjEv\000_ZNK17__HIP_CoordinatesI14__HIP_BlockIdxE3__YcvjEv\000_ZL8blockIdx\000_ZNK14__HIP_BlockDimclEj\000strtod\000rethrow_exception\000islessequal\000_ZL6lroundf\000_ZL5coshff\000_ZL8llroundff\000_ZL4tanff\000tanhf\000vwscanf\000wcsncpy\000uint_least32_t\000printf\000scanf\000R\000_ZN17__HIP_CoordinatesI15__HIP_ThreadIdxE3__XpLERKj\000_ZNK17__HIP_CoordinatesI15__HIP_ThreadIdxE3__ZcvjEv\000_ZL8blockDim\000sqrt\000atanh\000log1pl\000char\000abort\000strtoul\000lldiv\000_ZL6tgammaf\000_ZL5exp2ff\000_ZL7remquofffPi\000_ZL8scalblnffl\000_ZL7tgammaff\000wcscoll\000wcstold\000tolower\000clearerr\000_ZN17__HIP_CoordinatesI15__HIP_ThreadIdxE1xE\000_ZNK17__HIP_CoordinatesI14__HIP_BlockDimE3__XcvjEv\000fdim\000lgammaf\000calloc\000wctomb\000__gnu_debug\000_ZL5acoshf\000_ZL4asinf\000_ZL4fmaxff\000_ZL5hypotff\000isinf\000_ZL5cbrtff\000_ZL4fmaffff\000_IO_save_base\000_vtable_offset\000_offset\000wprintf\000__int16_t\000uint_fast16_t\000fflush\000setvbuf\000floor\000truncl\000_ZL4cbrtf\000_ZL4fdimff\000isfinite\000_ZL9nextafterff\000_ZL5rintff\000__wch\000_IO_write_end\000_lock\000_IO_codecvt\000isupper\000ferror\000fgetc\000localtime\000strftime\000_ZN9__gnu_cxxL21__default_lock_policyE\000_ZN17__HIP_CoordinatesI14__HIP_BlockIdxE3__YpLERKj\000asin\000lgamma\000llrintf\000logb\000nearbyintl\000nextafter\000nexttoward\000ldiv\000_ZL5atanhf\000_ZL4ceilf\000_ZL8isfinitef\000_ZL9remainderff\000_ZL3tanf\000_ZL5asinff\000_ZL6floorff\000_markers\000_shortbuf\000wcscpy\000wcsrtombs\000wcstoul\000vsscanf\000iswblank\000[llvm:v0.0]\000F\000cosh\000erff\000ilogbf\000rem\000atoll\000strtold\000_ZSt3abse\000_ZL5roundf\000_ZL6atanhff\000sqrtf\000_old_offset\000wcslen\000wcsstr\000lconv\000FILE\000puts\000vscanf\000iswpunct\000__clock_t\000_ZN17__HIP_CoordinatesI14__HIP_BlockDimE3__ZpLERKj\000sinh\000lgammal\000lrint\000lround\000scalblnf\000free\000_ZSt17rethrow_exceptionNSt15__exception_ptr13exception_ptrE\000_ZL11islessequalff\000_ZL6ilogbff\000wint_t\000wcscspn\000wmemchr\000uint8_t\000isblank\000__fpos_t\000fgetpos\000putc\000rewind\000blockIdx\000fmod\000fmaxf\000log2l\000lroundl\000remainderf\000scalbln\000quot\000mbstowcs\000quick_exit\000rand\000_ZL5lrintf\000fabsf\000__wchb\000_IO_lock_t\000__builtin_va_list\000short\000iscntrl\000ispunct\000setbuf\000__isoc99_sscanf\000sscanf\000threadIdx\000_ZNK15__HIP_ThreadIdxclEj\000cbrtl\000nan\000at_quick_exit\000lldiv_t\000_ZL5expm1f\000_ZL4fmodff\000isnan\000_ZL7lroundff\000_flags2\000putwc\000__isoc99_vswscanf\000wcrtomb\000wcstol\000int_least32_t\000uint64_t\000uintptr_t\000fseek\000getchar\000ungetc\000vprintf\000snprintf\000time\000atan2\000logbl\000atexit\000_ZL8copysignff\000_ZL5floorf\000_ZL6asinhff\000_ZL6lrintff\000mbstate_t\000_unused2\000__isoc99_fwscanf\000__isoc99_swscanf\000wcsrchr\000__int8_t\000__int_least16_t\000__uint_least32_t\000fscanf\000perror\000ldexp\000llround\000llroundf\000logbf\000scalblnl\000_ZL10fpclassifyf\000fpclassify\000_ZL5truncf\000atan2f\000_ZL5erfcff\000_IO_write_base\000_wide_data\000wcstoll\000int_least64_t\000__uint_least8_t\000vsnprintf\000wctype\000_ZNK17__HIP_CoordinatesI15__HIP_ThreadIdxE3__YcvjEv\000_ZN17__HIP_CoordinatesI15__HIP_ThreadIdxE3__ZpLERKj\000asinhf\000atanhl\000cbrt\000llrintl\000log2f\000nexttowardf\000remquof\000tgammaf\000div\000atanf\000_ZL4expff\000_ZL7llrintff\000sinf\000_flags\000fputwc\000putwchar\000wcstod\000wmemcpy\000wscanf\000setlocale\000isprint\000feof\000__isoc99_vsscanf\000clock\000__HIP_ThreadIdx\000_ZNK17__HIP_CoordinatesI15__HIP_ThreadIdxEcv4dim3Ev\000_ZNK17__HIP_CoordinatesI14__HIP_BlockDimE3__ZcvjEv\000_S_mutex\000fabs\000erfc\000atoi\000_ZL4atanf\000_ZL3nanPKc\000_ZL6atan2fff\000frexpf\000__ARRAY_SIZE_TYPE__\000_IO_read_base\000__isoc99_vfwscanf\000vswprintf\000uint_least8_t\000__uint_least16_t\000fputc\000rename\000iswdigit\000uint32_t\000z\000long double\000copysignf\000fdiml\000nanl\000__exception_ptr\000_ZL3absd\000_ZL4coshf\000_ZL5isinff\000isless\000_ZL6lgammaf\000ldexpf\000_ZL7lgammaff\000_ZL6log10ff\000_ZL6truncff\000_IO_read_ptr\000_IO_buf_base\000_mode\000wcspbrk\000uint_fast32_t\000ptrdiff_t\000islower\000fpos_t\000sprintf\000iswalnum\000iswupper\000towupper\000time_t\000__default_lock_policy\000__Y\000__HIP_Coordinates<__HIP_ThreadIdx>\000_ZL9threadIdx\000_ZNK17__HIP_CoordinatesI14__HIP_BlockIdxE3__ZcvjEv\000__HIP_BlockDim\000ilogb\000remainder\000rint\000rintl\000tgammal\000_ZL3fmafff\000isgreater\000isnormal\000_ZL5fminfff\000_ZL5logbff\000_ZL4powfff\000_IO_save_end\000mbrlen\000vwprintf\000intmax_t\000uint_least64_t\000uintmax_t\000lbm_rearrage_2.cpp\000x\000operator dim3\000__HIP_Coordinates<__HIP_BlockIdx>\000std\000asinh\000fmaf\000fminf\000_ZL4acosf\000_ZL4log2f\000signbit\000_ZL5atanff\000_ZL5sinhff\000_IO_write_ptr\000wmemmove\000__intmax_t\000unsigned char\000uint_fast64_t\000fgets\000fprintf\000getc\000vsprintf\000__X\000_ZNK17__HIP_CoordinatesI14__HIP_BlockIdxEcv4dim3Ev\000blockDim\000log\000strtol\000_Exit\000_ZL6scalbnfi\000cosf\000_ZL6log1pff\000__off_t\000signed char\000wctob\000int64_t\000int_fast64_t\000uint_fast8_t\000__uintmax_t\000wctrans_t\000_S_single\000double_t\000float_t\000asinhl\000fma\000log2\000nanf\000remquo\000roundl\000llabs\000_ZL3cosf\000_ZL4fabsf\000_ZL5ilogbf\000_ZL14isgreaterequalff\000_ZL6islessff\000_ZL11isunorderedff\000_ZL6expm1ff\000log10f\000_ZL5modfffPf\000_ZL10nextafterfff\000fwscanf\000wcsncmp\000fwrite\000tmpfile\000tmpnam\000iswlower\000towlower\000clock_t\000_ZNK14__HIP_BlockIdxclEj\000copysign\000hypotl\000ilogbl\000log1pf\000size_t\000system\000__debug\000exception_ptr\000_ZL4exp2f\000isunordered\000_ZL6llrintf\000_ZL4cosff\000_ZL5log2ff\000_ZL6roundff\000tanf\000_IO_backup_base\000__pad5\000vfwprintf\000__int32_t\000__int64_t\000isspace\000freopen\000y\000__HIP_Coordinates<__HIP_BlockDim>\000_ZN17__HIP_CoordinatesI15__HIP_ThreadIdxE1zE\000pow\000copysignl\000exp2\000lrintf\000lroundf\000roundf\000div_t\000mblen\000_ZL4rintf\000_ZL6frexpffPi\000__mbstate_t\000fwide\000mbsrtowcs\000uint16_t\000isdigit\000fread\000iswgraph\000AMD clang version 15.0.0 (https://github.com/RadeonOpenCompute/llvm-project roc-5.4.0 22465 d6f0fe8b22e3d8ce0f2cbd657ea14b16043018a5)\000/home/alex/Documents/bp_register_pressure/register_pressure/codes\000_ZN17__HIP_CoordinatesI15__HIP_ThreadIdxE3__YpLERKj\000_ZN17__HIP_CoordinatesI14__HIP_BlockDimE1xE\000_S_atomic\000llroundl\000nexttowardl\000trunc\000unsigned long\000_ZL4erfcf\000_ZL3powfi\000_ZL7scalblnfl\000floorf\000powf\000_ZL10remainderfff\000_IO_marker\000_codecvt\000_IO_wide_data\000fgetws\000__gnuc_va_list\000wcsncat\000__isoc99_wscanf\000wcstoull\000intptr_t\000isxdigit\000__isoc99_vscanf\000__time_t\000dim3\000_ZN17__HIP_CoordinatesI14__HIP_BlockDimE3__YpLERKj\000__gnu_cxx\000acoshl\000erfcf\000remquol\000scalbnf\000__compar_fn_t\000realloc\000strtoll\000unsigned long long\000islessgreater\000_ZL5isnanf\000_ZL4sqrtf\000_ZL4tanhf\000_cur_column\000__FILE\000swscanf\000vfwscanf\000int16_t\000int_fast8_t\000__uint64_t\000isalnum\000fopen\000__isoc99_scanf\000iswxdigit\000wctrans\000_Z6kernelPdS_S_S_S_S_S_S_S_S_S_S_S_S_S_S_S_S_S_S_S_S_S_S_S_S_S_S_S_S_S_iiiiiiiddddddddddddddd\000operator+=\000_ZN17__HIP_CoordinatesI14__HIP_BlockIdxE3__ZpLERKj\000ceil\000modf\000sin\000atanhf\000hypotf\000scalbnl\000exit\000_ZL5atan2ff\000_ZL4fminff\000isgreaterequal\000_ZL8isnormalf\000coshf\000_IO_read_end\000_IO_buf_end\000vswscanf\000wcsftime\000int_least16_t\000__isoc99_fscanf\000vfscanf\000iswalpha\000_ZN17__HIP_CoordinatesI14__HIP_BlockIdxE1xE\000cbrtf\000exp2f\000ldiv_t\000atof\000wcstombs\000_ZN9__gnu_cxx3divExx\000_ZL5ldexpfi\000_ZL3logf\000_ZL7llroundf\000_ZL4sinhf\000_ZL9copysignfff\000int8_t\000__int_least64_t\000isalpha\000_G_fpos_t\000ftell\000operator unsigned int\000_ZNK17__HIP_CoordinatesI14__HIP_BlockDimE3__YcvjEv\000double\000acosh\000expm1l\000fmaxl\000round\000truncf\000bsearch\000labs\000strtoull\000strtof\000_ZL6hypotfff\000__off64_t\000_freeres_buf\000__uint_least64_t\000isgraph\000fputs\000remove\000wctype_t\000operator()\000acos\000fmin\000llrint\000nextafterl\000atol\000qsort\000srand\000_ZL9isgreaterff\000_ZL4modffPf\000_ZL5ceilff\000_ZL5tanhff\000unsigned short\000wcsspn\000wcsxfrm\000int32_t\000int_least8_t\000__uint8_t\000localeconv\000vfprintf\000iswcntrl\000gmtime\000this\000__Z\000_ZNK17__HIP_CoordinatesI14__HIP_BlockIdxE3__XcvjEv\000_ZN17__HIP_CoordinatesI14__HIP_BlockDimE3__XpLERKj\000_ZN17__HIP_CoordinatesI14__HIP_BlockDimE1zE\000cos\000tan\000tanh\000erf\000fmal\000long long\000_ZL5asinhf\000_ZL3expf\000_ZL7signbitf\000ceilf\000_ZL5fdimfff\000logf\000_ZL4sinff\000sinhf\000btowc\000fgetwc\000mbrtowc\000ungetwc\000__isoc99_vwscanf\000wcscmp\000tm\000wcstof\000wmemset\000int_fast16_t\000toupper\000fsetpos\000iswprint\000__uint32_t\000_ZN17__HIP_CoordinatesI14__HIP_BlockDimE1yE\000abs\000exp\000float\000remainderl\000_ZL3erff\000_ZL4nanfPKc\000_ZL10nearbyintff\000_ZL7scalbnffi\000_fileno\000wcscat\000wmemcmp\000int_fast32_t\000fclose\000gets\000_ZN17__HIP_CoordinatesI14__HIP_BlockIdxE3__XpLERKj\000_Lock_policy\000exp2l\000fdimf\000fmax\000hypot\000rintf\000malloc\000_ZL5frexpfPi\000_ZL5llabsx\000_ZL4logbf\000_ZL6remquoffPi\000__count\000_chain\000fputws\000mbsinit\000swprintf\000__int_least8_t\000kernel\000_ZNK17__HIP_CoordinatesI14__HIP_BlockDimEcv4dim3Ev\000_ZN17__HIP_CoordinatesI15__HIP_ThreadIdxE1yE\000int\000acoshf\000erfl\000expm1\000log1p\000nearbyint\000nearbyintf\000mbtowc\000bool\000_ZL13islessgreaterff\000_ZL5log1pf\000_ZL9nearbyintf\000_ZL5fabsff\000_ZL5fmaxfff\000_ZL6ldexpffi\000_freeres_list\000_IO_FILE\000getwchar\000__int_least32_t\000uint_least16_t\000__isoc99_vfscanf\000mktime\000__HIP_BlockIdx\000frexp\000erfcl\000expm1f\000fminl\000long\000nextafterf\000scalbn\000wchar_t\000_ZL5log10f\000_ZL3sinf\000acosf\000asinf\000expf\000_ZL5fmodfff\000_ZL4logff\000modff\000__value\000fwprintf\000getwc\000__uint16_t\000iswspace\000towctrans\000asctime\000ctime\000\034\000\000\000\005\000\b\000\000 \000\000\000\000\000\000@ \000\000\000\000\000\000P \000\000\000\000\000\000\000AMD clang version 15.0.0 (https://github.com/RadeonOpenCompute/llvm-project roc-5.4.0 22465 d6f0fe8b22e3d8ce0f2cbd657ea14b16043018a5)\000Linker: AMD LLD 15.0.0\000O\007\000\000\005\000\b\000P\001\000\000\004\001\001\373\016\r\000\001\001\001\001\000\000\000\001\000\000\001\001\001\037\f?\002\000\000\006\004\000\000\266\000\000\000\231\001\000\000h\000\000\000\371\003\000\000x\003\000\000\275\001\000\000\201\002\000\000B\004\000\000\257\002\000\000\b\003\000\000\002\001\037\002\0174\367\001\000\000\000>\000\000\000\0011\001\000\000\002J\001\000\000\002\207\001\000\000\003\340\002\000\000\004X\003\000\000\0059\001\000\000\006\267\003\000\000\002\022\001\000\000\007\000\000\000\000\005#\000\000\000\007g\001\000\000\002\331\000\000\000\002\303\003\000\000\bX\003\000\000\007P\000\000\000\tX\000\000\000\006\032\002\000\000\b+\000\000\000\b\314\003\000\000\b\374\000\000\000\n\007\000\000\000\nv\001\000\000\007\030\001\000\000\n\n\001\000\000\005Y\001\000\000\n-\004\000\000\n\023\000\000\000\ba\003\000\000\002\330\002\000\000\007o\003\000\000\0056\004\000\000\013\246\000\000\000\004\350\003\000\000\007(\001\000\000\005\202\004\000\000\005C\001\000\000\007\034\000\000\000\n\n\002\000\000\007\356\002\000\000\n\340\003\000\000\005\340\003\000\000\002\360\003\000\000\005\265\001\000\000\007\371\002\000\000\002}\001\000\000\n\212\004\000\000\007\021\002\000\000\n!\001\000\000\005\352\000\000\000\006\367\001\000\000\000\0043\000\t\002\000 \000\000\000\000\000\000\003\017\001\004\001\005\f\n\003\374\001\001\003\fJ\003tJ\0043\005\030\003\205~t\004\001\005\f\003\373\001 \0043\005\030\003\206~<\004\001\005\f\003\372\001 \0043\005\030\003\207~<\005\b\003\f \005\016\006<\004\001\005\f\006\003\371\001X\0043\005\030\003\211~\326\005\r\006<\005\025\0061\005\027d\005\r%\005\025\006<\005'f\0059<\005K<\005\002\006=\005E@\005\0248\005&\006<\0058<\005J<\005\r\006;\005\025\006.\005\002\0060\005',\005\0020\0059\036\005\0250\005(\006<\005;<\005N<\005\002\006=\005\025\003z<4\005(\006<\005;<\005E\006\"\005;,\005K+\005\002/\005\024\006.\005&.\0058.\005J.\005\002\006/\005\025\006.\005(.\005;.\005N.\005\002\006/\005\025\006.\005(.\005;.\005\025\0064\005\032\003\021X\004\001\005\f\003\327\001X\0043\005\025\003\231~.\005\023\003v \005%\006<\005\036\006\003\r<\0057\003s.\005\026A\0056\006<\005I\006)\005[\006<\005\022\006=\005$\006<\0056<\005H<\005Z<\005\023\006=\005&\006<\0059<\005L<\005_<\005\023\006=\005&\006<\005C\006>\0059,\0050\003\n<\005B\006.\005T.\005f.\005\030\006/\005+\006.\005>.\005Q.\005?\006\003w.\005\0232\005dA\005\030!\005\036g\005\030-\0050\273\005\030-\005'\003\013<\005\025\003p.\005'\003\020 \005\025\003p.\005/\003\020 \005\025\003q.\0058\003\017.\005\025\003q.\005 \003\017 \005\025\003p<\005$\003\022.\005B,\005$\"\005\025\003o \005\021\003\f.\005\r1\005$0\004\001\005\f\003\325\001.\0043\005\030\003\236~ \004\001\005\f\003\342\001.\0043\005\031\003\246~ \005\"\006.\005\024\006/\005\033\006.\005$\0063\005B\003s \005T\006.\005f.\005\030\006/\005+\006.\005>.\005Q.\005\023\006\003y.\005dC\005\030!\0054\003\n<\0059\006<\005\027 \005$\006/K=\005\030\003s<\005$\003\016.\0054\035\0059\006<\005\027.\005$\006/\005\030\003t.\005$\003\016\326/\0054\035\0059\006<\005\027 \005$\006/\0054\006.\0059<\005\027.\005$\006/\005\036\003s.\0050\006.\005C.\005V.\005i.\005\030\006/\005+\006.\005>.\005\023\006\003w.\005Q\003\t.\005d\006.\005\030\006!\005$\003\f<\005\030\003t.\005\036\003\025\b\022\005\032\006.\004\001\005\f\006\003\307\001 \0043\005\"\003\271~.\004\001\005\f\003\307\001 \0043\005#\003\276~.\0054\003q.\0059\006<\005\027 \005$\006/\0054\006.\0059.\005\027.\005\031\006\003\f.\005\020\003v.Q\0054M\005\031,\005.0\005\024,\005L\"\005\036,\005'\003x \005\023/\005*\003\013<\005?\006.\005\026\006\003\017.\005\027\003o \005\037\006<\005V \005\r.\005\"\0063\005\013\006.\005\024\006\003u \005\007\003\013.\005\024\035\005\0071\005\024,\0050-\005\007#\005\030,\005\007\"!\005G(\0052\003w.\0059\006<\005\026.\005\"\006/\005\007\006.\005$\0060\005.\006.\005\024.\005\007\0061\0052\033\0059\006.\005\026.\005$\0063\005\021\006.\005\007 \005G\006\035\005\0071\005\025,\0054-\005\007#\005\032\036\005\007\"!\0054\037\005;\006<\005\030.\005$\006/\005\021\006.\005\007 \006]\0054\033\005;\006.\005\030.\005(\0063\005$+\005\0211\005.\035\005\0071\005\024\035\005\007#\005\025,\0054-\005\007#\005\032\036\005\007\"!\005\036#\0058*\005?\006<\005\034.\005(\006/\005\021\006.\005\007 \006_!\0058\003x \005?\006.\005\034.\005(\0065\005\007\006.\005\024\006\003b \005-\003\031.\005\0073\005\023\003_ \005\025\003\037.\005&+\005#1\005%\036\005B-\005\024\006.\005H.\0058\006%\005?\006<\005\034.\005(\006/\005\007\006.\0064=B\0058\003s \005?\006.\005\034.\005(\0064\005-*\005\034/\005\025/\005&,\005#0\037\005B-\005\024\006.\005H.\0058\006$\005?\006<\005\034.\005)\006/\005-0\005&\006.\005\025\0060\005:*\005A\006.\005\035.\005-\0064\005\036+\005%\006.\005#\006/\005B\036\005\024\006.\005H.\005\007\006$/\005>\037\005E\006<\005!.\005-\006/\005\007\006.\005-\0060\005\0072\005\025\036\005>*\005E\006.\005!.\005-\0064\005\007\006.\005\036\006\035\005&-\005\0072\005%\035\005#/\005B\036\005\024\006.\005H.\005>\006$\005E\006<\005!.\005-\006/\005\007\006.\005-\006>\005\0250\005>*\005E\006.\005!.\005/\0064\005\030\006.\005\007 \005\036\006c\005&-\005%/\005#/\005B\036\005\024\006.\005H.\005@\006$\005G\006<\005#.\005/\006/\005\030\006.\005\007 \005-\006h\005\0250\005@*\005G\006.\005#.\005/\0064\005\030\006.\005\007 \005\036\006c\005&-\005%/\005#/\005B\036\005\024\006.\005H \005@\006$\005G\006<\005#.\005/\006/\005\030\006.\005\007 \005@f\005G.\005#.\005\003\0061\002\206\002\000\001\001\000\034\000\000\000\377\377\377\377\004[llvm:v0.0]\000\b\000\004\004\020\000\000\000\000\000\000\034\000\000\000\000\000\000\000\000 \000\000\000\000\000\000\354\r\000\000\000\000\000\000\017\00306\341\007\020\000math.h\000mbstate_t.h\000stdarg.h\000FILE.h\000cstdlib\000__clang_hip_math.h\000amd_hip_runtime.h\000debug.h\000exception_ptr.h\000/usr/lib/gcc/x86_64-linux-gnu/9/../../../../include/c++/9/ext\000new_allocator.h\000/usr/include/x86_64-linux-gnu/bits\000stdlib-bsearch.h\000shared_ptr_base.h\000__mbstate_t.h\000wchar.h\000cmath\000wint_t.h\000time.h\000locale.h\000types.h\000std_abs.h\000cctype\000stdint-uintn.h\000struct_FILE.h\000stdlib-float.h\000cwchar\000clock_t.h\000hip_runtime_api.h\000/opt/rocm-5.4.0/include/hip\000cwctype\000/usr/lib/gcc/x86_64-linux-gnu/9/../../../../include/c++/9\000lbm_rearrage_2.cpp\000cstdio\000time_t.h\000__clang_cuda_math_forward_declares.h\000/home/alex/Documents/bp_register_pressure/register_pressure/codes\000/opt/rocm-5.4.0/llvm/lib/clang/15.0.0/include\000/usr/include/x86_64-linux-gnu/bits/types\000cstdint\000concurrence.h\000__fpos_t.h\000wctype-wchar.h\000/usr/lib/gcc/x86_64-linux-gnu/9/../../../../include/x86_64-linux-gnu/c++/9/bits\000stdlib.h\000stdint-intn.h\000stdint.h\000/usr/lib/gcc/x86_64-linux-gnu/9/../../../../include/c++/9/bits\000mathcalls.h\000stddef.h\000__clang_hip_cmath.h\000stdio.h\000clocale\000wctype.h\000/usr/include\000/opt/rocm-5.4.0/include/hip/amd_detail\000__FILE.h\000c++config.h\000/usr/lib/gcc/x86_64-linux-gnu/9/../../../../include/c++/9/debug\000ctype.h\000ctime\000\000\000\000\000\000\000\000\000\000\000\000\000\000\000\000\000\000\000\000\000\000\000\000\000O\002\000\000\000\002\b\000\000@\000\000\000\000\000\000\000\000\000\000\000\000\000\000\001\000\000\000\022\003\007\000\000 \000\000\000\000\000\000\354\r\000\000\000\000\000\000_\000\000\000\021\003\006\000\000\024\000\000\000\000\000\000@\000\000\000\000\000\000\000\300\000\000\000!\003\006\000@\024\000\000\000\000\000\000\001\000\000\000\000\000\000\000\355\000\000\000!\003\006\000A\024\000\000\000\000\000\000\001\000\000\000\000\000\000\000\031\001\000\000!\003\006\000B\024\000\000\000\000\000\000\001\000\000\000\000\000\000\000E\001\000\000!\003\006\000C\024\000\000\000\000\000\000\001\000\000\000\000\000\000\000r\001\000\000!\003\006\000D\024\000\000\000\000\000\000\001\000\000\000\000\000\000\000\236\001\000\000!\003\006\000E\024\000\000\000\000\000\000\001\000\000\000\000\000\000\000\312\001\000\000!\003\006\000F\024\000\000\000\000\000\000\001\000\000\000\000\000\000\000\367\001\000\000!\003\006\000G\024\000\000\000\000\000\000\001\000\000\000\000\000\000\000#\002\000\000!\003\006\000H\024\000\000\000\000\000\000\001\000\000\000\000\000\000\000\000.note\000.dynsym\000.gnu.hash\000.hash\000.dynstr\000.rodata\000.text\000.dynamic\000.AMDGPU.csdata\000.debug_abbrev\000.debug_info\000.debug_rnglists\000.debug_str_offsets\000.debug_str\000.debug_addr\000.comment\000.debug_line\000.debug_frame\000.debug_line_str\000.symtab\000.shstrtab\000.strtab\000\000_Z6kernelPdS_S_S_S_S_S_S_S_S_S_S_S_S_S_S_S_S_S_S_S_S_S_S_S_S_S_S_S_S_S_iiiiiiiddddddddddddddd\000_Z6kernelPdS_S_S_S_S_S_S_S_S_S_S_S_S_S_S_S_S_S_S_S_S_S_S_S_S_S_S_S_S_S_iiiiiiiddddddddddddddd.kd\000_ZN17__HIP_CoordinatesI15__HIP_ThreadIdxE1xE\000_ZN17__HIP_CoordinatesI14__HIP_BlockIdxE1xE\000_ZN17__HIP_CoordinatesI14__HIP_BlockDimE1xE\000_ZN17__HIP_CoordinatesI15__HIP_ThreadIdxE1yE\000_ZN17__HIP_CoordinatesI14__HIP_BlockIdxE1yE\000_ZN17__HIP_CoordinatesI14__HIP_BlockDimE1yE\000_ZN17__HIP_CoordinatesI15__HIP_ThreadIdxE1zE\000_ZN17__HIP_CoordinatesI14__HIP_BlockIdxE1zE\000_ZN17__HIP_CoordinatesI14__HIP_BlockDimE1zE\000_DYNAMIC\000\000\000\000\000\000\000\000\000\000\000\000\000\000\000\000\000\000\000\000\000\000\000\000\000\000\000\000\000\000\000\000\000\000\000\000\000\000\000\000\000\000\000\000\000\000\000\000\000\000\000\000\000\000\000\000\000\000\000\000\000\000\000\000\000\000\000\000\001\000\000\000\007\000\000\000\002\000\000\000\000\000\000\000\000\002\000\000\000\000\000\000\000\002\000\000\000\000\000\000\244\r\000\000\000\000\000\000\000\000\000\000\000\000\000\000\004\000\000\000\000\000\000\000\000\000\000\000\000\000\000\000\007\000\000\000\013\000\000\000\002\000\000\000\000\000\000\000\250\017\000\000\000\000\000\000\250\017\000\000\000\000\000\000 \001\000\000\000\000\000\000\005\000\000\000\001\000\000\000\b\000\000\000\000\000\000\000\030\000\000\000\000\000\000\000\017\000\000\000\366\377\377o\002\000\000\000\000\000\000\000\310\020\000\000\000\000\000\000\310\020\000\000\000\000\000\000d\000\000\000\000\000\000\000\002\000\000\000\000\000\000\000\b\000\000\000\000\000\000\000\000\000\000\000\000\000\000\000\031\000\000\000\005\000\000\000\002\000\000\000\000\000\000\000,\021\000\000\000\000\000\000,\021\000\000\000\000\000\000h\000\000\000\000\000\000\000\002\000\000\000\000\000\000\000\004\000\000\000\000\000\000\000\004\000\000\000\000\000\000\000\037\000\000\000\003\000\000\000\002\000\000\000\000\000\000\000\224\021\000\000\000\000\000\000\224\021\000\000\000\000\000\000O\002\000\000\000\000\000\000\000\000\000\000\000\000\000\000\001\000\000\000\000\000\000\000\000\000\000\000\000\000\000\000'\000\000\000\001\000\000\000\002\000\000\000\000\000\000\000\000\024\000\000\000\000\000\000\000\024\000\000\000\000\000\000I\000\000\000\000\000\000\000\000\000\000\000\000\000\000\000@\000\000\000\000\000\000\000\000\000\000\000\000\000\000\000/\000\000\000\001\000\000\000\006\000\000\000\000\000\000\000\000 \000\000\000\000\000\000\000 \000\000\000\000\000\000\000\022\000\000\000\000\000\000\000\000\000\000\000\000\000\000\000\001\000\000\000\000\000\000\000\000\000\000\000\000\000\0005\000\000\000\006\000\000\000\003\000\000\000\000\000\000\000\000@\000\000\000\000\000\000\000@\000\000\000\000\000\000p\000\000\000\000\000\000\000\005\000\000\000\000\000\000\000\b\000\000\000\000\000\000\000\020\000\000\000\000\000\000\000>\000\000\000\001\000\000\000\000\000\000\000\000\000\000\000\000\000\000\000\000\000\000\000p@\000\000\000\000\000\000\000\000\000\000\000\000\000\000\000\000\000\000\000\000\000\000\001\000\000\000\000\000\000\000\000\000\000\000\000\000\000\000M\000\000\000\001\000\000\000\000\000\000\000\000\000\000\000\000\000\000\000\000\000\000\000p@\000\000\000\000\000\000\306\003\000\000\000\000\000\000\000\000\000\000\000\000\000\000\001\000\000\000\000\000\000\000\000\000\000\000\000\000\000\000[\000\000\000\001\000\000\000\000\000\000\000\000\000\000\000\000\000\000\000\000\000\000\0006D\000\000\000\000\000\000 ;\000\000\000\000\000\000\000\000\000\000\000\000\000\000\001\000\000\000\000\000\000\000\000\000\000\000\000\000\000\000g\000\000\000\001\000\000\000\000\000\000\000\000\000\000\000\000\000\000\000\000\000\000\000V\177\000\000\000\000\000\000n\000\000\000\000\000\000\000\000\000\000\000\000\000\000\000\001\000\000\000\000\000\000\000\000\000\000\000\000\000\000\000w\000\000\000\001\000\000\000\000\000\000\000\000\000\000\000\000\000\000\000\000\000\000\000\304\177\000\000\000\000\000\000\360\n\000\000\000\000\000\000\000\000\000\000\000\000\000\000\001\000\000\000\000\000\000\000\000\000\000\000\000\000\000\000\212\000\000\000\001\000\000\0000\000\000\000\000\000\000\000\000\000\000\000\000\000\000\000\264\212\000\000\000\000\000\000\262\037\000\000\000\000\000\000\000\000\000\000\000\000\000\000\001\000\000\000\000\000\000\000\001\000\000\000\000\000\000\000\225\000\000\000\001\000\000\000\000\000\000\000\000\000\000\000\000\000\000\000\000\000\000\000f\252\000\000\000\000\000\000 \000\000\000\000\000\000\000\000\000\000\000\000\000\000\000\001\000\000\000\000\000\000\000\000\000\000\000\000\000\000\000\241\000\000\000\001\000\000\0000\000\000\000\000\000\000\000\000\000\000\000\000\000\000\000\206\252\000\000\000\000\000\000\236\000\000\000\000\000\000\000\000\000\000\000\000\000\000\000\001\000\000\000\000\000\000\000\001\000\000\000\000\000\000\000\252\000\000\000\001\000\000\000\000\000\000\000\000\000\000\000\000\000\000\000\000\000\000\000$\253\000\000\000\000\000\000S\007\000\000\000\000\000\000\000\000\000\000\000\000\000\000\001\000\000\000\000\000\000\000\000\000\000\000\000\000\000\000\266\000\000\000\001\000\000\000\000\000\000\000\000\000\000\000\000\000\000\000\000\000\000\000x\262\000\000\000\000\000\000@\000\000\000\000\000\000\000\000\000\000\000\000\000\000\000\b\000\000\000\000\000\000\000\000\000\000\000\000\000\000\000\303\000\000\000\001\000\000\0000\000\000\000\000\000\000\000\000\000\000\000\000\000\000\000\270\262\000\000\000\000\000\000\220\004\000\000\000\000\000\000\000\000\000\000\000\000\000\000\001\000\000\000\000\000\000\000\001\000\000\000\000\000\000\000\323\000\000\000\002\000\000\000\000\000\000\000\000\000\000\000\000\000\000\000\000\000\000\000H\267\000\000\000\000\000\0008\001\000\000\000\000\000\000\026\000\000\000\002\000\000\000\b\000\000\000\000\000\000\000\030\000\000\000\000\000\000\000\333\000\000\000\003\000\000\000\000\000\000\000\000\000\000\000\000\000\000\000\000\000\000\000\200\270\000\000\000\000\000\000\355\000\000\000\000\000\000\000\000\000\000\000\000\000\000\000\001\000\000\000\000\000\000\000\000\000\000\000\000\000\000\000\345\000\000\000\003\000\000\000\000\000\000\000\000\000\000\000\000\000\000\000\000\000\000\000m\271\000\000\000\000\000\000X\002\000\000\000\000\000\000\000\000\000\000\000\000\000\000\001\000\000\000\000\000\000\000\000\000\000\000\000\000\000\000"
	.size	.L__unnamed_2, 53641

	.type	__hip_fatbin_wrapper,@object    # @__hip_fatbin_wrapper
	.section	.hipFatBinSegment,"a",@progbits
	.p2align	3
__hip_fatbin_wrapper:
	.long	1212764230                      # 0x48495046
	.long	1                               # 0x1
	.quad	.L__unnamed_2
	.quad	0
	.size	__hip_fatbin_wrapper, 24

	.type	__hip_gpubin_handle,@object     # @__hip_gpubin_handle
	.local	__hip_gpubin_handle
	.comm	__hip_gpubin_handle,8,8
	.section	.init_array,"aw",@init_array
	.p2align	3
	.quad	__hip_module_ctor
	.section	".note.GNU-stack","",@progbits
	.addrsig
	.addrsig_sym _Z21__device_stub__kernelPdS_S_S_S_S_S_S_S_S_S_S_S_S_S_S_S_S_S_S_S_S_S_S_S_S_S_S_S_S_S_iiiiiiiddddddddddddddd
	.addrsig_sym __hip_module_ctor
	.addrsig_sym __hip_module_dtor
	.addrsig_sym _Z6kernelPdS_S_S_S_S_S_S_S_S_S_S_S_S_S_S_S_S_S_S_S_S_S_S_S_S_S_S_S_S_S_iiiiiiiddddddddddddddd
	.addrsig_sym .L__unnamed_2
	.addrsig_sym __hip_fatbin_wrapper